
l1pp:     file format elf64-x86-64
l1pp
architecture: i386:x86-64, flags 0x00000112:
EXEC_P, HAS_SYMS, D_PAGED
start address 0x0000000000400430

Program Header:
    PHDR off    0x0000000000000040 vaddr 0x0000000000400040 paddr 0x0000000000400040 align 2**3
         filesz 0x00000000000001f8 memsz 0x00000000000001f8 flags r-x
  INTERP off    0x0000000000000238 vaddr 0x0000000000400238 paddr 0x0000000000400238 align 2**0
         filesz 0x000000000000001c memsz 0x000000000000001c flags r--
    LOAD off    0x0000000000000000 vaddr 0x0000000000400000 paddr 0x0000000000400000 align 2**21
         filesz 0x0000000000002bec memsz 0x0000000000002bec flags r-x
    LOAD off    0x0000000000002e10 vaddr 0x0000000000602e10 paddr 0x0000000000602e10 align 2**21
         filesz 0x0000000000000228 memsz 0x0000000000000230 flags rw-
 DYNAMIC off    0x0000000000002e28 vaddr 0x0000000000602e28 paddr 0x0000000000602e28 align 2**3
         filesz 0x00000000000001d0 memsz 0x00000000000001d0 flags rw-
    NOTE off    0x0000000000000254 vaddr 0x0000000000400254 paddr 0x0000000000400254 align 2**2
         filesz 0x0000000000000044 memsz 0x0000000000000044 flags r--
EH_FRAME off    0x00000000000029fc vaddr 0x00000000004029fc paddr 0x00000000004029fc align 2**2
         filesz 0x000000000000005c memsz 0x000000000000005c flags r--
   STACK off    0x0000000000000000 vaddr 0x0000000000000000 paddr 0x0000000000000000 align 2**4
         filesz 0x0000000000000000 memsz 0x0000000000000000 flags rw-
   RELRO off    0x0000000000002e10 vaddr 0x0000000000602e10 paddr 0x0000000000602e10 align 2**0
         filesz 0x00000000000001f0 memsz 0x00000000000001f0 flags r--

Dynamic Section:
  NEEDED               libc.so.6
  INIT                 0x00000000004003c8
  FINI                 0x00000000004009a4
  INIT_ARRAY           0x0000000000602e10
  INIT_ARRAYSZ         0x0000000000000008
  FINI_ARRAY           0x0000000000602e18
  FINI_ARRAYSZ         0x0000000000000008
  GNU_HASH             0x0000000000400298
  STRTAB               0x0000000000400318
  SYMTAB               0x00000000004002b8
  STRSZ                0x000000000000003f
  SYMENT               0x0000000000000018
  DEBUG                0x0000000000000000
  PLTGOT               0x0000000000603000
  PLTRELSZ             0x0000000000000030
  PLTREL               0x0000000000000007
  JMPREL               0x0000000000400398
  RELA                 0x0000000000400380
  RELASZ               0x0000000000000018
  RELAENT              0x0000000000000018
  VERNEED              0x0000000000400360
  VERNEEDNUM           0x0000000000000001
  VERSYM               0x0000000000400358

Version References:
  required from libc.so.6:
    0x09691a75 0x00 02 GLIBC_2.2.5

Sections:
Idx Name          Size      VMA               LMA               File off  Algn
  0 .interp       0000001c  0000000000400238  0000000000400238  00000238  2**0
                  CONTENTS, ALLOC, LOAD, READONLY, DATA
  1 .note.ABI-tag 00000020  0000000000400254  0000000000400254  00000254  2**2
                  CONTENTS, ALLOC, LOAD, READONLY, DATA
  2 .note.gnu.build-id 00000024  0000000000400274  0000000000400274  00000274  2**2
                  CONTENTS, ALLOC, LOAD, READONLY, DATA
  3 .gnu.hash     0000001c  0000000000400298  0000000000400298  00000298  2**3
                  CONTENTS, ALLOC, LOAD, READONLY, DATA
  4 .dynsym       00000060  00000000004002b8  00000000004002b8  000002b8  2**3
                  CONTENTS, ALLOC, LOAD, READONLY, DATA
  5 .dynstr       0000003f  0000000000400318  0000000000400318  00000318  2**0
                  CONTENTS, ALLOC, LOAD, READONLY, DATA
  6 .gnu.version  00000008  0000000000400358  0000000000400358  00000358  2**1
                  CONTENTS, ALLOC, LOAD, READONLY, DATA
  7 .gnu.version_r 00000020  0000000000400360  0000000000400360  00000360  2**3
                  CONTENTS, ALLOC, LOAD, READONLY, DATA
  8 .rela.dyn     00000018  0000000000400380  0000000000400380  00000380  2**3
                  CONTENTS, ALLOC, LOAD, READONLY, DATA
  9 .rela.plt     00000030  0000000000400398  0000000000400398  00000398  2**3
                  CONTENTS, ALLOC, LOAD, READONLY, DATA
 10 .init         0000001a  00000000004003c8  00000000004003c8  000003c8  2**2
                  CONTENTS, ALLOC, LOAD, READONLY, CODE
 11 .plt          00000030  00000000004003f0  00000000004003f0  000003f0  2**4
                  CONTENTS, ALLOC, LOAD, READONLY, CODE
 12 .plt.got      00000008  0000000000400420  0000000000400420  00000420  2**3
                  CONTENTS, ALLOC, LOAD, READONLY, CODE
 13 .text         00000572  0000000000400430  0000000000400430  00000430  2**4
                  CONTENTS, ALLOC, LOAD, READONLY, CODE
 14 .fini         00000009  00000000004009a4  00000000004009a4  000009a4  2**2
                  CONTENTS, ALLOC, LOAD, READONLY, CODE
 15 .rodata       0000203b  00000000004009c0  00000000004009c0  000009c0  2**5
                  CONTENTS, ALLOC, LOAD, READONLY, DATA
 16 .eh_frame_hdr 0000005c  00000000004029fc  00000000004029fc  000029fc  2**2
                  CONTENTS, ALLOC, LOAD, READONLY, DATA
 17 .eh_frame     00000194  0000000000402a58  0000000000402a58  00002a58  2**3
                  CONTENTS, ALLOC, LOAD, READONLY, DATA
 18 .init_array   00000008  0000000000602e10  0000000000602e10  00002e10  2**3
                  CONTENTS, ALLOC, LOAD, DATA
 19 .fini_array   00000008  0000000000602e18  0000000000602e18  00002e18  2**3
                  CONTENTS, ALLOC, LOAD, DATA
 20 .jcr          00000008  0000000000602e20  0000000000602e20  00002e20  2**3
                  CONTENTS, ALLOC, LOAD, DATA
 21 .dynamic      000001d0  0000000000602e28  0000000000602e28  00002e28  2**3
                  CONTENTS, ALLOC, LOAD, DATA
 22 .got          00000008  0000000000602ff8  0000000000602ff8  00002ff8  2**3
                  CONTENTS, ALLOC, LOAD, DATA
 23 .got.plt      00000028  0000000000603000  0000000000603000  00003000  2**3
                  CONTENTS, ALLOC, LOAD, DATA
 24 .data         00000010  0000000000603028  0000000000603028  00003028  2**3
                  CONTENTS, ALLOC, LOAD, DATA
 25 .bss          00000008  0000000000603038  0000000000603038  00003038  2**0
                  ALLOC
 26 .comment      00000035  0000000000000000  0000000000000000  00003038  2**0
                  CONTENTS, READONLY
 27 .debug_aranges 00000030  0000000000000000  0000000000000000  0000306d  2**0
                  CONTENTS, READONLY, DEBUGGING
 28 .debug_info   00000479  0000000000000000  0000000000000000  0000309d  2**0
                  CONTENTS, READONLY, DEBUGGING
 29 .debug_abbrev 000000ea  0000000000000000  0000000000000000  00003516  2**0
                  CONTENTS, READONLY, DEBUGGING
 30 .debug_line   000000ef  0000000000000000  0000000000000000  00003600  2**0
                  CONTENTS, READONLY, DEBUGGING
 31 .debug_str    00000123  0000000000000000  0000000000000000  000036ef  2**0
                  CONTENTS, READONLY, DEBUGGING
SYMBOL TABLE:
0000000000400238 l    d  .interp	0000000000000000              .interp
0000000000400254 l    d  .note.ABI-tag	0000000000000000              .note.ABI-tag
0000000000400274 l    d  .note.gnu.build-id	0000000000000000              .note.gnu.build-id
0000000000400298 l    d  .gnu.hash	0000000000000000              .gnu.hash
00000000004002b8 l    d  .dynsym	0000000000000000              .dynsym
0000000000400318 l    d  .dynstr	0000000000000000              .dynstr
0000000000400358 l    d  .gnu.version	0000000000000000              .gnu.version
0000000000400360 l    d  .gnu.version_r	0000000000000000              .gnu.version_r
0000000000400380 l    d  .rela.dyn	0000000000000000              .rela.dyn
0000000000400398 l    d  .rela.plt	0000000000000000              .rela.plt
00000000004003c8 l    d  .init	0000000000000000              .init
00000000004003f0 l    d  .plt	0000000000000000              .plt
0000000000400420 l    d  .plt.got	0000000000000000              .plt.got
0000000000400430 l    d  .text	0000000000000000              .text
00000000004009a4 l    d  .fini	0000000000000000              .fini
00000000004009c0 l    d  .rodata	0000000000000000              .rodata
00000000004029fc l    d  .eh_frame_hdr	0000000000000000              .eh_frame_hdr
0000000000402a58 l    d  .eh_frame	0000000000000000              .eh_frame
0000000000602e10 l    d  .init_array	0000000000000000              .init_array
0000000000602e18 l    d  .fini_array	0000000000000000              .fini_array
0000000000602e20 l    d  .jcr	0000000000000000              .jcr
0000000000602e28 l    d  .dynamic	0000000000000000              .dynamic
0000000000602ff8 l    d  .got	0000000000000000              .got
0000000000603000 l    d  .got.plt	0000000000000000              .got.plt
0000000000603028 l    d  .data	0000000000000000              .data
0000000000603038 l    d  .bss	0000000000000000              .bss
0000000000000000 l    d  .comment	0000000000000000              .comment
0000000000000000 l    d  .debug_aranges	0000000000000000              .debug_aranges
0000000000000000 l    d  .debug_info	0000000000000000              .debug_info
0000000000000000 l    d  .debug_abbrev	0000000000000000              .debug_abbrev
0000000000000000 l    d  .debug_line	0000000000000000              .debug_line
0000000000000000 l    d  .debug_str	0000000000000000              .debug_str
0000000000000000 l    df *ABS*	0000000000000000              crtstuff.c
0000000000602e20 l     O .jcr	0000000000000000              __JCR_LIST__
0000000000400460 l     F .text	0000000000000000              deregister_tm_clones
00000000004004a0 l     F .text	0000000000000000              register_tm_clones
00000000004004e0 l     F .text	0000000000000000              __do_global_dtors_aux
0000000000603038 l     O .bss	0000000000000001              completed.7594
0000000000602e18 l     O .fini_array	0000000000000000              __do_global_dtors_aux_fini_array_entry
0000000000400500 l     F .text	0000000000000000              frame_dummy
0000000000602e10 l     O .init_array	0000000000000000              __frame_dummy_init_array_entry
0000000000000000 l    df *ABS*	0000000000000000              l1pp.c
00000000004009e0 l     O .rodata	0000000000000400              Te0
0000000000400de0 l     O .rodata	0000000000000400              Te1
00000000004011e0 l     O .rodata	0000000000000400              Te2
00000000004015e0 l     O .rodata	0000000000000400              Te3
00000000004019e0 l     O .rodata	0000000000000400              Td0
0000000000401de0 l     O .rodata	0000000000000400              Td1
00000000004021e0 l     O .rodata	0000000000000400              Td2
00000000004025e0 l     O .rodata	0000000000000400              Td3
00000000004005ee l     F .text	000000000000001f              rdtscp64
0000000000000000 l    df *ABS*	0000000000000000              crtstuff.c
0000000000402be8 l     O .eh_frame	0000000000000000              __FRAME_END__
0000000000602e20 l     O .jcr	0000000000000000              __JCR_END__
0000000000000000 l    df *ABS*	0000000000000000              
0000000000602e18 l       .init_array	0000000000000000              __init_array_end
0000000000602e28 l     O .dynamic	0000000000000000              _DYNAMIC
0000000000602e10 l       .init_array	0000000000000000              __init_array_start
00000000004029fc l       .eh_frame_hdr	0000000000000000              __GNU_EH_FRAME_HDR
0000000000603000 l     O .got.plt	0000000000000000              _GLOBAL_OFFSET_TABLE_
00000000004009a0 g     F .text	0000000000000002              __libc_csu_fini
0000000000000000  w      *UND*	0000000000000000              _ITM_deregisterTMCloneTable
0000000000603028  w      .data	0000000000000000              data_start
0000000000603038 g       .data	0000000000000000              _edata
00000000004009a4 g     F .fini	0000000000000000              _fini
000000000040058a g     F .text	0000000000000025              test3
00000000004005af g     F .text	000000000000003f              test1
0000000000000000       F *UND*	0000000000000000              printf@@GLIBC_2.2.5
0000000000000000       F *UND*	0000000000000000              __libc_start_main@@GLIBC_2.2.5
0000000000603028 g       .data	0000000000000000              __data_start
0000000000000000  w      *UND*	0000000000000000              __gmon_start__
0000000000603030 g     O .data	0000000000000000              .hidden __dso_handle
00000000004009c0 g     O .rodata	0000000000000004              _IO_stdin_used
0000000000400930 g     F .text	0000000000000065              __libc_csu_init
0000000000603040 g       .bss	0000000000000000              _end
0000000000400430 g     F .text	000000000000002a              _start
0000000000603038 g       .bss	0000000000000000              __bss_start
000000000040060d g     F .text	0000000000000318              main
0000000000400526 g     F .text	000000000000003f              test0
0000000000400565 g     F .text	0000000000000025              test2
0000000000000000  w      *UND*	0000000000000000              _Jv_RegisterClasses
0000000000603038 g     O .data	0000000000000000              .hidden __TMC_END__
0000000000000000  w      *UND*	0000000000000000              _ITM_registerTMCloneTable
00000000004003c8 g     F .init	0000000000000000              _init


Contents of section .interp:
 400238 2f6c6962 36342f6c 642d6c69 6e75782d  /lib64/ld-linux-
 400248 7838362d 36342e73 6f2e3200           x86-64.so.2.    
Contents of section .note.ABI-tag:
 400254 04000000 10000000 01000000 474e5500  ............GNU.
 400264 00000000 02000000 06000000 20000000  ............ ...
Contents of section .note.gnu.build-id:
 400274 04000000 14000000 03000000 474e5500  ............GNU.
 400284 267bf795 6e0cc8ee 7fd37062 72904fa5  &{..n.....pbr.O.
 400294 2f1f1f80                             /...            
Contents of section .gnu.hash:
 400298 01000000 01000000 01000000 00000000  ................
 4002a8 00000000 00000000 00000000           ............    
Contents of section .dynsym:
 4002b8 00000000 00000000 00000000 00000000  ................
 4002c8 00000000 00000000 0b000000 12000000  ................
 4002d8 00000000 00000000 00000000 00000000  ................
 4002e8 12000000 12000000 00000000 00000000  ................
 4002f8 00000000 00000000 24000000 20000000  ........$... ...
 400308 00000000 00000000 00000000 00000000  ................
Contents of section .dynstr:
 400318 006c6962 632e736f 2e360070 72696e74  .libc.so.6.print
 400328 66005f5f 6c696263 5f737461 72745f6d  f.__libc_start_m
 400338 61696e00 5f5f676d 6f6e5f73 74617274  ain.__gmon_start
 400348 5f5f0047 4c494243 5f322e32 2e3500    __.GLIBC_2.2.5. 
Contents of section .gnu.version:
 400358 00000200 02000000                    ........        
Contents of section .gnu.version_r:
 400360 01000100 01000000 10000000 00000000  ................
 400370 751a6909 00000200 33000000 00000000  u.i.....3.......
Contents of section .rela.dyn:
 400380 f82f6000 00000000 06000000 03000000  ./`.............
 400390 00000000 00000000                    ........        
Contents of section .rela.plt:
 400398 18306000 00000000 07000000 01000000  .0`.............
 4003a8 00000000 00000000 20306000 00000000  ........ 0`.....
 4003b8 07000000 02000000 00000000 00000000  ................
Contents of section .init:
 4003c8 4883ec08 488b0525 2c200048 85c07405  H...H..%, .H..t.
 4003d8 e8430000 004883c4 08c3               .C...H....      
Contents of section .plt:
 4003f0 ff35122c 2000ff25 142c2000 0f1f4000  .5., ..%., ...@.
 400400 ff25122c 20006800 000000e9 e0ffffff  .%., .h.........
 400410 ff250a2c 20006801 000000e9 d0ffffff  .%., .h.........
Contents of section .plt.got:
 400420 ff25d22b 20006690                    .%.+ .f.        
Contents of section .text:
 400430 31ed4989 d15e4889 e24883e4 f0505449  1.I..^H..H...PTI
 400440 c7c0a009 400048c7 c1300940 0048c7c7  ....@.H..0.@.H..
 400450 0d064000 e8b7ffff fff4660f 1f440000  ..@.......f..D..
 400460 b83f3060 0055482d 38306000 4883f80e  .?0`.UH-80`.H...
 400470 4889e576 1bb80000 00004885 c074115d  H..v......H..t.]
 400480 bf383060 00ffe066 0f1f8400 00000000  .80`...f........
 400490 5dc30f1f 4000662e 0f1f8400 00000000  ]...@.f.........
 4004a0 be383060 00554881 ee383060 0048c1fe  .80`.UH..80`.H..
 4004b0 034889e5 4889f048 c1e83f48 01c648d1  .H..H..H..?H..H.
 4004c0 fe7415b8 00000000 4885c074 0b5dbf38  .t......H..t.].8
 4004d0 306000ff e00f1f00 5dc3660f 1f440000  0`......].f..D..
 4004e0 803d512b 20000075 11554889 e5e86eff  .=Q+ ..u.UH...n.
 4004f0 ffff5dc6 053e2b20 0001f3c3 0f1f4000  ..]..>+ ......@.
 400500 bf202e60 0048833f 007505eb 930f1f00  . .`.H.?.u......
 400510 b8000000 004885c0 74f15548 89e5ffd0  .....H..t.UH....
 400520 5de97aff ffff5548 89e5c745 f4000000  ].z...UH...E....
 400530 00eb26c7 45f80000 0000eb13 8b45f848  ..&.E........E.H
 400540 988b0485 e0094000 8945fc83 45f80183  ......@..E..E...
 400550 7df8037e e78345f4 01817df4 e7030000  }..~..E...}.....
 400560 7ed1905d c3554889 e5c745f8 00000000  ~..].UH...E.....
 400570 eb0cb863 c6a56389 45fc8345 f801817d  ...c..c.E..E...}
 400580 f82b0100 007eeb90 5dc35548 89e5c745  .+...~..].UH...E
 400590 f8000000 00eb0cb8 63c6a563 8945fc83  ........c..c.E..
 4005a0 45f80181 7df8cf07 00007eeb 905dc355  E...}.....~..].U
 4005b0 4889e5c7 45f40000 0000eb26 c745f800  H...E......&.E..
 4005c0 000000eb 138b45f8 48988b04 85e00d40  ......E.H......@
 4005d0 008945fc 8345f801 837df803 7ee78345  ..E..E...}..~..E
 4005e0 f401817d f4e70300 007ed190 5dc35548  ...}.....~..].UH
 4005f0 89e50f01 f98945f8 8955fc8b 45fc48c1  ......E..U..E.H.
 400600 e0204889 c28b45f8 4809d05d c3554889  . H...E.H..].UH.
 400610 e54881ec 20010000 64488b04 25280000  .H.. ...dH..%(..
 400620 00488945 f831c0c7 85e0feff ff000000  .H.E.1..........
 400630 00c78500 ffffff00 000000c7 8504ffff  ................
 400640 ff000000 00c78508 ffffff00 000000c7  ................
 400650 850cffff ff000000 00c78510 ffffff00  ................
 400660 000000c7 8514ffff ff010000 00c78518  ................
 400670 ffffff01 000000c7 851cffff ff010000  ................
 400680 00c78520 ffffff01 000000c7 8524ffff  ... .........$..
 400690 ff010000 00c78528 ffffff00 000000c7  .......(........
 4006a0 852cffff ff000000 00c78530 ffffff00  .,.........0....
 4006b0 000000c7 8534ffff ff000000 00c78538  .....4.........8
 4006c0 ffffff00 000000c7 853cffff ff010000  .........<......
 4006d0 00c78540 ffffff01 000000c7 8544ffff  ...@.........D..
 4006e0 ff010000 00c78548 ffffff01 000000c7  .......H........
 4006f0 854cffff ff010000 00c78550 ffffff00  .L.........P....
 400700 000000c7 8554ffff ff000000 00c78558  .....T.........X
 400710 ffffff00 000000c7 855cffff ff000000  .........\......
 400720 00c78560 ffffff00 000000c7 8564ffff  ...`.........d..
 400730 ff010000 00c78568 ffffff01 000000c7  .......h........
 400740 856cffff ff010000 00c78570 ffffff01  .l.........p....
 400750 000000c7 8574ffff ff010000 00c74580  .....t........E.
 400760 00000000 c7458400 000000c7 45880000  .....E......E...
 400770 0000c745 8c000000 00c74590 00000000  ...E......E.....
 400780 c7459401 000000c7 45980000 0000c745  .E......E......E
 400790 9c010000 00c745a0 00000000 c745a401  ......E......E..
 4007a0 000000c7 45a80000 0000c745 ac010000  ....E......E....
 4007b0 00c745b0 00000000 c745b401 000000c7  ..E......E......
 4007c0 45b80000 0000c745 bc000000 00c745c0  E......E......E.
 4007d0 00000000 c745c401 000000c7 45c80100  .....E......E...
 4007e0 0000c745 cc000000 00c745d0 00000000  ...E......E.....
 4007f0 c745d401 000000c7 45d80100 0000c745  .E......E......E
 400800 dc000000 00c745e0 00000000 c745e401  ......E......E..
 400810 000000c7 45e80100 0000c745 ec010000  ....E......E....
 400820 00c745f0 01000000 c745f401 000000c7  ..E......E......
 400830 85e4feff ff000000 00e9b400 0000c785  ................
 400840 e8feffff 00000000 e98e0000 00c785ec  ................
 400850 feffff00 000000eb 728b85ec feffff48  ........r......H
 400860 988b8485 00ffffff 85c0754e b8000000  ..........uN....
 400870 00e878fd ffff4889 85f0feff ffb80000  ..x...H.........
 400880 0000e89f fcffffb8 00000000 e85dfdff  .............]..
 400890 ff488985 f8feffff 488b85f8 feffff48  .H......H......H
 4008a0 2b85f0fe ffff4889 c6bfe029 4000b800  +.....H....)@...
 4008b0 000000e8 48fbffff eb0ab800 000000e8  ....H...........
 4008c0 ebfcffff 8385ecfe ffff0183 bdecfeff  ................
 4008d0 ff1d7e85 8385e8fe ffff0181 bde8feff  ..~.............
 4008e0 ff3f0600 000f8e62 ffffff83 85e4feff  .?.....b........
 4008f0 ff0181bd e4feffff e7030000 0f8e3cff  ..............<.
 400900 ffff8385 e0feffff 018b85e0 feffff89  ................
 400910 c6bff129 4000b800 000000e8 e0faffff  ...)@...........
 400920 e90affff ff662e0f 1f840000 00000090  .....f..........
 400930 41574156 4189ff41 5541544c 8d25ce24  AWAVA..AUATL.%.$
 400940 20005548 8d2dce24 20005349 89f64989   .UH.-.$ .SI..I.
 400950 d54c29e5 4883ec08 48c1fd03 e867faff  .L).H...H....g..
 400960 ff4885ed 742031db 0f1f8400 00000000  .H..t 1.........
 400970 4c89ea4c 89f64489 ff41ff14 dc4883c3  L..L..D..A...H..
 400980 014839eb 75ea4883 c4085b5d 415c415d  .H9.u.H...[]A\A]
 400990 415e415f c390662e 0f1f8400 00000000  A^A_..f.........
 4009a0 f3c3                                 ..              
Contents of section .fini:
 4009a4 4883ec08 4883c408 c3                 H...H....       
Contents of section .rodata:
 4009c0 01000200 00000000 00000000 00000000  ................
 4009d0 00000000 00000000 00000000 00000000  ................
 4009e0 a56363c6 847c7cf8 997777ee 8d7b7bf6  .cc..||..ww..{{.
 4009f0 0df2f2ff bd6b6bd6 b16f6fde 54c5c591  .....kk..oo.T...
 400a00 50303060 03010102 a96767ce 7d2b2b56  P00`.....gg.}++V
 400a10 19fefee7 62d7d7b5 e6abab4d 9a7676ec  ....b......M.vv.
 400a20 45caca8f 9d82821f 40c9c989 877d7dfa  E.......@....}}.
 400a30 15fafaef eb5959b2 c947478e 0bf0f0fb  .....YY..GG.....
 400a40 ecadad41 67d4d4b3 fda2a25f eaafaf45  ...Ag......_...E
 400a50 bf9c9c23 f7a4a453 967272e4 5bc0c09b  ...#...S.rr.[...
 400a60 c2b7b775 1cfdfde1 ae93933d 6a26264c  ...u.......=j&&L
 400a70 5a36366c 413f3f7e 02f7f7f5 4fcccc83  Z66lA??~....O...
 400a80 5c343468 f4a5a551 34e5e5d1 08f1f1f9  \44h...Q4.......
 400a90 937171e2 73d8d8ab 53313162 3f15152a  .qq.s...S11b?..*
 400aa0 0c040408 52c7c795 65232346 5ec3c39d  ....R...e##F^...
 400ab0 28181830 a1969637 0f05050a b59a9a2f  (..0...7......./
 400ac0 0907070e 36121224 9b80801b 3de2e2df  ....6..$....=...
 400ad0 26ebebcd 6927274e cdb2b27f 9f7575ea  &...i''N.....uu.
 400ae0 1b090912 9e83831d 742c2c58 2e1a1a34  ........t,,X...4
 400af0 2d1b1b36 b26e6edc ee5a5ab4 fba0a05b  -..6.nn..ZZ....[
 400b00 f65252a4 4d3b3b76 61d6d6b7 ceb3b37d  .RR.M;;va......}
 400b10 7b292952 3ee3e3dd 712f2f5e 97848413  {))R>...q//^....
 400b20 f55353a6 68d1d1b9 00000000 2cededc1  .SS.h.......,...
 400b30 60202040 1ffcfce3 c8b1b179 ed5b5bb6  `  @.......y.[[.
 400b40 be6a6ad4 46cbcb8d d9bebe67 4b393972  .jj.F......gK99r
 400b50 de4a4a94 d44c4c98 e85858b0 4acfcf85  .JJ..LL..XX.J...
 400b60 6bd0d0bb 2aefefc5 e5aaaa4f 16fbfbed  k...*......O....
 400b70 c5434386 d74d4d9a 55333366 94858511  .CC..MM.U33f....
 400b80 cf45458a 10f9f9e9 06020204 817f7ffe  .EE.............
 400b90 f05050a0 443c3c78 ba9f9f25 e3a8a84b  .PP.D<<x...%...K
 400ba0 f35151a2 fea3a35d c0404080 8a8f8f05  .QQ....].@@.....
 400bb0 ad92923f bc9d9d21 48383870 04f5f5f1  ...?...!H88p....
 400bc0 dfbcbc63 c1b6b677 75dadaaf 63212142  ...c...wu...c!!B
 400bd0 30101020 1affffe5 0ef3f3fd 6dd2d2bf  0.. ........m...
 400be0 4ccdcd81 140c0c18 35131326 2fececc3  L.......5..&/...
 400bf0 e15f5fbe a2979735 cc444488 3917172e  .__....5.DD.9...
 400c00 57c4c493 f2a7a755 827e7efc 473d3d7a  W......U.~~.G==z
 400c10 ac6464c8 e75d5dba 2b191932 957373e6  .dd..]].+..2.ss.
 400c20 a06060c0 98818119 d14f4f9e 7fdcdca3  .``......OO.....
 400c30 66222244 7e2a2a54 ab90903b 8388880b  f""D~**T...;....
 400c40 ca46468c 29eeeec7 d3b8b86b 3c141428  .FF.)......k<..(
 400c50 79dedea7 e25e5ebc 1d0b0b16 76dbdbad  y....^^.....v...
 400c60 3be0e0db 56323264 4e3a3a74 1e0a0a14  ;...V22dN::t....
 400c70 db494992 0a06060c 6c242448 e45c5cb8  .II.....l$$H.\\.
 400c80 5dc2c29f 6ed3d3bd efacac43 a66262c4  ]...n......C.bb.
 400c90 a8919139 a4959531 37e4e4d3 8b7979f2  ...9...17....yy.
 400ca0 32e7e7d5 43c8c88b 5937376e b76d6dda  2...C...Y77n.mm.
 400cb0 8c8d8d01 64d5d5b1 d24e4e9c e0a9a949  ....d....NN....I
 400cc0 b46c6cd8 fa5656ac 07f4f4f3 25eaeacf  .ll..VV.....%...
 400cd0 af6565ca 8e7a7af4 e9aeae47 18080810  .ee..zz....G....
 400ce0 d5baba6f 887878f0 6f25254a 722e2e5c  ...o.xx.o%%Jr..\
 400cf0 241c1c38 f1a6a657 c7b4b473 51c6c697  $..8...W...sQ...
 400d00 23e8e8cb 7cdddda1 9c7474e8 211f1f3e  #...|....tt.!..>
 400d10 dd4b4b96 dcbdbd61 868b8b0d 858a8a0f  .KK....a........
 400d20 907070e0 423e3e7c c4b5b571 aa6666cc  .pp.B>>|...q.ff.
 400d30 d8484890 05030306 01f6f6f7 120e0e1c  .HH.............
 400d40 a36161c2 5f35356a f95757ae d0b9b969  .aa._55j.WW....i
 400d50 91868617 58c1c199 271d1d3a b99e9e27  ....X...'..:...'
 400d60 38e1e1d9 13f8f8eb b398982b 33111122  8..........+3.."
 400d70 bb6969d2 70d9d9a9 898e8e07 a7949433  .ii.p..........3
 400d80 b69b9b2d 221e1e3c 92878715 20e9e9c9  ...-"..<.... ...
 400d90 49cece87 ff5555aa 78282850 7adfdfa5  I....UU.x((Pz...
 400da0 8f8c8c03 f8a1a159 80898909 170d0d1a  .......Y........
 400db0 dabfbf65 31e6e6d7 c6424284 b86868d0  ...e1....BB..hh.
 400dc0 c3414182 b0999929 772d2d5a 110f0f1e  .AA....)w--Z....
 400dd0 cbb0b07b fc5454a8 d6bbbb6d 3a16162c  ...{.TT....m:..,
 400de0 6363c6a5 7c7cf884 7777ee99 7b7bf68d  cc..||..ww..{{..
 400df0 f2f2ff0d 6b6bd6bd 6f6fdeb1 c5c59154  ....kk..oo.....T
 400e00 30306050 01010203 6767cea9 2b2b567d  00`P....gg..++V}
 400e10 fefee719 d7d7b562 abab4de6 7676ec9a  .......b..M.vv..
 400e20 caca8f45 82821f9d c9c98940 7d7dfa87  ...E.......@}}..
 400e30 fafaef15 5959b2eb 47478ec9 f0f0fb0b  ....YY..GG......
 400e40 adad41ec d4d4b367 a2a25ffd afaf45ea  ..A....g.._...E.
 400e50 9c9c23bf a4a453f7 7272e496 c0c09b5b  ..#...S.rr.....[
 400e60 b7b775c2 fdfde11c 93933dae 26264c6a  ..u.......=.&&Lj
 400e70 36366c5a 3f3f7e41 f7f7f502 cccc834f  66lZ??~A.......O
 400e80 3434685c a5a551f4 e5e5d134 f1f1f908  44h\..Q....4....
 400e90 7171e293 d8d8ab73 31316253 15152a3f  qq.....s11bS..*?
 400ea0 0404080c c7c79552 23234665 c3c39d5e  .......R##Fe...^
 400eb0 18183028 969637a1 05050a0f 9a9a2fb5  ..0(..7......./.
 400ec0 07070e09 12122436 80801b9b e2e2df3d  ......$6.......=
 400ed0 ebebcd26 27274e69 b2b27fcd 7575ea9f  ...&''Ni....uu..
 400ee0 0909121b 83831d9e 2c2c5874 1a1a342e  ........,,Xt..4.
 400ef0 1b1b362d 6e6edcb2 5a5ab4ee a0a05bfb  ..6-nn..ZZ....[.
 400f00 5252a4f6 3b3b764d d6d6b761 b3b37dce  RR..;;vM...a..}.
 400f10 2929527b e3e3dd3e 2f2f5e71 84841397  ))R{...>//^q....
 400f20 5353a6f5 d1d1b968 00000000 ededc12c  SS.....h.......,
 400f30 20204060 fcfce31f b1b179c8 5b5bb6ed    @`......y.[[..
 400f40 6a6ad4be cbcb8d46 bebe67d9 3939724b  jj.....F..g.99rK
 400f50 4a4a94de 4c4c98d4 5858b0e8 cfcf854a  JJ..LL..XX.....J
 400f60 d0d0bb6b efefc52a aaaa4fe5 fbfbed16  ...k...*..O.....
 400f70 434386c5 4d4d9ad7 33336655 85851194  CC..MM..33fU....
 400f80 45458acf f9f9e910 02020406 7f7ffe81  EE..............
 400f90 5050a0f0 3c3c7844 9f9f25ba a8a84be3  PP..<<xD..%...K.
 400fa0 5151a2f3 a3a35dfe 404080c0 8f8f058a  QQ....].@@......
 400fb0 92923fad 9d9d21bc 38387048 f5f5f104  ..?...!.88pH....
 400fc0 bcbc63df b6b677c1 dadaaf75 21214263  ..c...w....u!!Bc
 400fd0 10102030 ffffe51a f3f3fd0e d2d2bf6d  .. 0...........m
 400fe0 cdcd814c 0c0c1814 13132635 ececc32f  ...L......&5.../
 400ff0 5f5fbee1 979735a2 444488cc 17172e39  __....5.DD.....9
 401000 c4c49357 a7a755f2 7e7efc82 3d3d7a47  ...W..U.~~..==zG
 401010 6464c8ac 5d5dbae7 1919322b 7373e695  dd..]]....2+ss..
 401020 6060c0a0 81811998 4f4f9ed1 dcdca37f  ``......OO......
 401030 22224466 2a2a547e 90903bab 88880b83  ""Df**T~..;.....
 401040 46468cca eeeec729 b8b86bd3 1414283c  FF.....)..k...(<
 401050 dedea779 5e5ebce2 0b0b161d dbdbad76  ...y^^.........v
 401060 e0e0db3b 32326456 3a3a744e 0a0a141e  ...;22dV::tN....
 401070 494992db 06060c0a 2424486c 5c5cb8e4  II......$$Hl\\..
 401080 c2c29f5d d3d3bd6e acac43ef 6262c4a6  ...]...n..C.bb..
 401090 919139a8 959531a4 e4e4d337 7979f28b  ..9...1....7yy..
 4010a0 e7e7d532 c8c88b43 37376e59 6d6ddab7  ...2...C77nYmm..
 4010b0 8d8d018c d5d5b164 4e4e9cd2 a9a949e0  .......dNN....I.
 4010c0 6c6cd8b4 5656acfa f4f4f307 eaeacf25  ll..VV.........%
 4010d0 6565caaf 7a7af48e aeae47e9 08081018  ee..zz....G.....
 4010e0 baba6fd5 7878f088 25254a6f 2e2e5c72  ..o.xx..%%Jo..\r
 4010f0 1c1c3824 a6a657f1 b4b473c7 c6c69751  ..8$..W...s....Q
 401100 e8e8cb23 dddda17c 7474e89c 1f1f3e21  ...#...|tt....>!
 401110 4b4b96dd bdbd61dc 8b8b0d86 8a8a0f85  KK....a.........
 401120 7070e090 3e3e7c42 b5b571c4 6666ccaa  pp..>>|B..q.ff..
 401130 484890d8 03030605 f6f6f701 0e0e1c12  HH..............
 401140 6161c2a3 35356a5f 5757aef9 b9b969d0  aa..55j_WW....i.
 401150 86861791 c1c19958 1d1d3a27 9e9e27b9  .......X..:'..'.
 401160 e1e1d938 f8f8eb13 98982bb3 11112233  ...8......+..."3
 401170 6969d2bb d9d9a970 8e8e0789 949433a7  ii.....p......3.
 401180 9b9b2db6 1e1e3c22 87871592 e9e9c920  ..-...<"....... 
 401190 cece8749 5555aaff 28285078 dfdfa57a  ...IUU..((Px...z
 4011a0 8c8c038f a1a159f8 89890980 0d0d1a17  ......Y.........
 4011b0 bfbf65da e6e6d731 424284c6 6868d0b8  ..e....1BB..hh..
 4011c0 414182c3 999929b0 2d2d5a77 0f0f1e11  AA....).--Zw....
 4011d0 b0b07bcb 5454a8fc bbbb6dd6 16162c3a  ..{.TT....m...,:
 4011e0 63c6a563 7cf8847c 77ee9977 7bf68d7b  c..c|..|w..w{..{
 4011f0 f2ff0df2 6bd6bd6b 6fdeb16f c59154c5  ....k..ko..o..T.
 401200 30605030 01020301 67cea967 2b567d2b  0`P0....g..g+V}+
 401210 fee719fe d7b562d7 ab4de6ab 76ec9a76  ......b..M..v..v
 401220 ca8f45ca 821f9d82 c98940c9 7dfa877d  ..E.......@.}..}
 401230 faef15fa 59b2eb59 478ec947 f0fb0bf0  ....Y..YG..G....
 401240 ad41ecad d4b367d4 a25ffda2 af45eaaf  .A....g.._...E..
 401250 9c23bf9c a453f7a4 72e49672 c09b5bc0  .#...S..r..r..[.
 401260 b775c2b7 fde11cfd 933dae93 264c6a26  .u.......=..&Lj&
 401270 366c5a36 3f7e413f f7f502f7 cc834fcc  6lZ6?~A?......O.
 401280 34685c34 a551f4a5 e5d134e5 f1f908f1  4h\4.Q....4.....
 401290 71e29371 d8ab73d8 31625331 152a3f15  q..q..s.1bS1.*?.
 4012a0 04080c04 c79552c7 23466523 c39d5ec3  ......R.#Fe#..^.
 4012b0 18302818 9637a196 050a0f05 9a2fb59a  .0(..7......./..
 4012c0 070e0907 12243612 801b9b80 e2df3de2  .....$6.......=.
 4012d0 ebcd26eb 274e6927 b27fcdb2 75ea9f75  ..&.'Ni'....u..u
 4012e0 09121b09 831d9e83 2c58742c 1a342e1a  ........,Xt,.4..
 4012f0 1b362d1b 6edcb26e 5ab4ee5a a05bfba0  .6-.n..nZ..Z.[..
 401300 52a4f652 3b764d3b d6b761d6 b37dceb3  R..R;vM;..a..}..
 401310 29527b29 e3dd3ee3 2f5e712f 84139784  )R{)..>./^q/....
 401320 53a6f553 d1b968d1 00000000 edc12ced  S..S..h.......,.
 401330 20406020 fce31ffc b179c8b1 5bb6ed5b   @` .....y..[..[
 401340 6ad4be6a cb8d46cb be67d9be 39724b39  j..j..F..g..9rK9
 401350 4a94de4a 4c98d44c 58b0e858 cf854acf  J..JL..LX..X..J.
 401360 d0bb6bd0 efc52aef aa4fe5aa fbed16fb  ..k...*..O......
 401370 4386c543 4d9ad74d 33665533 85119485  C..CM..M3fU3....
 401380 458acf45 f9e910f9 02040602 7ffe817f  E..E............
 401390 50a0f050 3c78443c 9f25ba9f a84be3a8  P..P<xD<.%...K..
 4013a0 51a2f351 a35dfea3 4080c040 8f058a8f  Q..Q.]..@..@....
 4013b0 923fad92 9d21bc9d 38704838 f5f104f5  .?...!..8pH8....
 4013c0 bc63dfbc b677c1b6 daaf75da 21426321  .c...w....u.!Bc!
 4013d0 10203010 ffe51aff f3fd0ef3 d2bf6dd2  . 0...........m.
 4013e0 cd814ccd 0c18140c 13263513 ecc32fec  ..L......&5.../.
 4013f0 5fbee15f 9735a297 4488cc44 172e3917  _.._.5..D..D..9.
 401400 c49357c4 a755f2a7 7efc827e 3d7a473d  ..W..U..~..~=zG=
 401410 64c8ac64 5dbae75d 19322b19 73e69573  d..d]..].2+.s..s
 401420 60c0a060 81199881 4f9ed14f dca37fdc  `..`....O..O....
 401430 22446622 2a547e2a 903bab90 880b8388  "Df"*T~*.;......
 401440 468cca46 eec729ee b86bd3b8 14283c14  F..F..)..k...(<.
 401450 dea779de 5ebce25e 0b161d0b dbad76db  ..y.^..^......v.
 401460 e0db3be0 32645632 3a744e3a 0a141e0a  ..;.2dV2:tN:....
 401470 4992db49 060c0a06 24486c24 5cb8e45c  I..I....$Hl$\..\
 401480 c29f5dc2 d3bd6ed3 ac43efac 62c4a662  ..]...n..C..b..b
 401490 9139a891 9531a495 e4d337e4 79f28b79  .9...1....7.y..y
 4014a0 e7d532e7 c88b43c8 376e5937 6ddab76d  ..2...C.7nY7m..m
 4014b0 8d018c8d d5b164d5 4e9cd24e a949e0a9  ......d.N..N.I..
 4014c0 6cd8b46c 56acfa56 f4f307f4 eacf25ea  l..lV..V......%.
 4014d0 65caaf65 7af48e7a ae47e9ae 08101808  e..ez..z.G......
 4014e0 ba6fd5ba 78f08878 254a6f25 2e5c722e  .o..x..x%Jo%.\r.
 4014f0 1c38241c a657f1a6 b473c7b4 c69751c6  .8$..W...s....Q.
 401500 e8cb23e8 dda17cdd 74e89c74 1f3e211f  ..#...|.t..t.>!.
 401510 4b96dd4b bd61dcbd 8b0d868b 8a0f858a  K..K.a..........
 401520 70e09070 3e7c423e b571c4b5 66ccaa66  p..p>|B>.q..f..f
 401530 4890d848 03060503 f6f701f6 0e1c120e  H..H............
 401540 61c2a361 356a5f35 57aef957 b969d0b9  a..a5j_5W..W.i..
 401550 86179186 c19958c1 1d3a271d 9e27b99e  ......X..:'..'..
 401560 e1d938e1 f8eb13f8 982bb398 11223311  ..8......+..."3.
 401570 69d2bb69 d9a970d9 8e07898e 9433a794  i..i..p......3..
 401580 9b2db69b 1e3c221e 87159287 e9c920e9  .-...<"....... .
 401590 ce8749ce 55aaff55 28507828 dfa57adf  ..I.U..U(Px(..z.
 4015a0 8c038f8c a159f8a1 89098089 0d1a170d  .....Y..........
 4015b0 bf65dabf e6d731e6 4284c642 68d0b868  .e....1.B..Bh..h
 4015c0 4182c341 9929b099 2d5a772d 0f1e110f  A..A.)..-Zw-....
 4015d0 b07bcbb0 54a8fc54 bb6dd6bb 162c3a16  .{..T..T.m...,:.
 4015e0 c6a56363 f8847c7c ee997777 f68d7b7b  ..cc..||..ww..{{
 4015f0 ff0df2f2 d6bd6b6b deb16f6f 9154c5c5  ......kk..oo.T..
 401600 60503030 02030101 cea96767 567d2b2b  `P00......ggV}++
 401610 e719fefe b562d7d7 4de6abab ec9a7676  .....b..M.....vv
 401620 8f45caca 1f9d8282 8940c9c9 fa877d7d  .E.......@....}}
 401630 ef15fafa b2eb5959 8ec94747 fb0bf0f0  ......YY..GG....
 401640 41ecadad b367d4d4 5ffda2a2 45eaafaf  A....g.._...E...
 401650 23bf9c9c 53f7a4a4 e4967272 9b5bc0c0  #...S.....rr.[..
 401660 75c2b7b7 e11cfdfd 3dae9393 4c6a2626  u.......=...Lj&&
 401670 6c5a3636 7e413f3f f502f7f7 834fcccc  lZ66~A??.....O..
 401680 685c3434 51f4a5a5 d134e5e5 f908f1f1  h\44Q....4......
 401690 e2937171 ab73d8d8 62533131 2a3f1515  ..qq.s..bS11*?..
 4016a0 080c0404 9552c7c7 46652323 9d5ec3c3  .....R..Fe##.^..
 4016b0 30281818 37a19696 0a0f0505 2fb59a9a  0(..7......./...
 4016c0 0e090707 24361212 1b9b8080 df3de2e2  ....$6.......=..
 4016d0 cd26ebeb 4e692727 7fcdb2b2 ea9f7575  .&..Ni''......uu
 4016e0 121b0909 1d9e8383 58742c2c 342e1a1a  ........Xt,,4...
 4016f0 362d1b1b dcb26e6e b4ee5a5a 5bfba0a0  6-....nn..ZZ[...
 401700 a4f65252 764d3b3b b761d6d6 7dceb3b3  ..RRvM;;.a..}...
 401710 527b2929 dd3ee3e3 5e712f2f 13978484  R{)).>..^q//....
 401720 a6f55353 b968d1d1 00000000 c12ceded  ..SS.h.......,..
 401730 40602020 e31ffcfc 79c8b1b1 b6ed5b5b  @`  ....y.....[[
 401740 d4be6a6a 8d46cbcb 67d9bebe 724b3939  ..jj.F..g...rK99
 401750 94de4a4a 98d44c4c b0e85858 854acfcf  ..JJ..LL..XX.J..
 401760 bb6bd0d0 c52aefef 4fe5aaaa ed16fbfb  .k...*..O.......
 401770 86c54343 9ad74d4d 66553333 11948585  ..CC..MMfU33....
 401780 8acf4545 e910f9f9 04060202 fe817f7f  ..EE............
 401790 a0f05050 78443c3c 25ba9f9f 4be3a8a8  ..PPxD<<%...K...
 4017a0 a2f35151 5dfea3a3 80c04040 058a8f8f  ..QQ].....@@....
 4017b0 3fad9292 21bc9d9d 70483838 f104f5f5  ?...!...pH88....
 4017c0 63dfbcbc 77c1b6b6 af75dada 42632121  c...w....u..Bc!!
 4017d0 20301010 e51affff fd0ef3f3 bf6dd2d2   0...........m..
 4017e0 814ccdcd 18140c0c 26351313 c32fecec  .L......&5.../..
 4017f0 bee15f5f 35a29797 88cc4444 2e391717  ..__5.....DD.9..
 401800 9357c4c4 55f2a7a7 fc827e7e 7a473d3d  .W..U.....~~zG==
 401810 c8ac6464 bae75d5d 322b1919 e6957373  ..dd..]]2+....ss
 401820 c0a06060 19988181 9ed14f4f a37fdcdc  ..``......OO....
 401830 44662222 547e2a2a 3bab9090 0b838888  Df""T~**;.......
 401840 8cca4646 c729eeee 6bd3b8b8 283c1414  ..FF.)..k...(<..
 401850 a779dede bce25e5e 161d0b0b ad76dbdb  .y....^^.....v..
 401860 db3be0e0 64563232 744e3a3a 141e0a0a  .;..dV22tN::....
 401870 92db4949 0c0a0606 486c2424 b8e45c5c  ..II....Hl$$..\\
 401880 9f5dc2c2 bd6ed3d3 43efacac c4a66262  .]...n..C.....bb
 401890 39a89191 31a49595 d337e4e4 f28b7979  9...1....7....yy
 4018a0 d532e7e7 8b43c8c8 6e593737 dab76d6d  .2...C..nY77..mm
 4018b0 018c8d8d b164d5d5 9cd24e4e 49e0a9a9  .....d....NNI...
 4018c0 d8b46c6c acfa5656 f307f4f4 cf25eaea  ..ll..VV.....%..
 4018d0 caaf6565 f48e7a7a 47e9aeae 10180808  ..ee..zzG.......
 4018e0 6fd5baba f0887878 4a6f2525 5c722e2e  o.....xxJo%%\r..
 4018f0 38241c1c 57f1a6a6 73c7b4b4 9751c6c6  8$..W...s....Q..
 401900 cb23e8e8 a17cdddd e89c7474 3e211f1f  .#...|....tt>!..
 401910 96dd4b4b 61dcbdbd 0d868b8b 0f858a8a  ..KKa...........
 401920 e0907070 7c423e3e 71c4b5b5 ccaa6666  ..pp|B>>q.....ff
 401930 90d84848 06050303 f701f6f6 1c120e0e  ..HH............
 401940 c2a36161 6a5f3535 aef95757 69d0b9b9  ..aaj_55..WWi...
 401950 17918686 9958c1c1 3a271d1d 27b99e9e  .....X..:'..'...
 401960 d938e1e1 eb13f8f8 2bb39898 22331111  .8......+..."3..
 401970 d2bb6969 a970d9d9 07898e8e 33a79494  ..ii.p......3...
 401980 2db69b9b 3c221e1e 15928787 c920e9e9  -...<"....... ..
 401990 8749cece aaff5555 50782828 a57adfdf  .I....UUPx((.z..
 4019a0 038f8c8c 59f8a1a1 09808989 1a170d0d  ....Y...........
 4019b0 65dabfbf d731e6e6 84c64242 d0b86868  e....1....BB..hh
 4019c0 82c34141 29b09999 5a772d2d 1e110f0f  ..AA)...Zw--....
 4019d0 7bcbb0b0 a8fc5454 6dd6bbbb 2c3a1616  {.....TTm...,:..
 4019e0 50a7f451 5365417e c3a4171a 965e273a  P..QSeA~.....^':
 4019f0 cb6bab3b f1459d1f ab58faac 9303e34b  .k.;.E...X.....K
 401a00 55fa3020 f66d76ad 9176cc88 254c02f5  U.0 .mv..v..%L..
 401a10 fcd7e54f d7cb2ac5 80443526 8fa362b5  ...O..*..D5&..b.
 401a20 495ab1de 671bba25 980eea45 e1c0fe5d  IZ..g..%...E...]
 401a30 02752fc3 12f04c81 a397468d c6f9d36b  .u/...L...F....k
 401a40 e75f8f03 959c9215 eb7a6dbf da595295  ._.......zm..YR.
 401a50 2d83bed4 d3217458 2969e049 44c8c98e  -....!tX)i.ID...
 401a60 6a89c275 78798ef4 6b3e5899 dd71b927  j..uxy..k>X..q.'
 401a70 b64fe1be 17ad88f0 66ac20c9 b43ace7d  .O......f. ..:.}
 401a80 184adf63 82311ae5 60335197 457f5362  .J.c.1..`3Q.E.Sb
 401a90 e07764b1 84ae6bbb 1ca081fe 942b08f9  .wd...k......+..
 401aa0 58684870 19fd458f 876cde94 b7f87b52  XhHp..E..l....{R
 401ab0 23d373ab e2024b72 578f1fe3 2aab5566  #.s...KrW...*.Uf
 401ac0 0728ebb2 03c2b52f 9a7bc586 a50837d3  .(...../.{....7.
 401ad0 f2872830 b2a5bf23 ba6a0302 5c8216ed  ..(0...#.j..\...
 401ae0 2b1ccf8a 92b479a7 f0f207f3 a1e2694e  +.....y.......iN
 401af0 cdf4da65 d5be0506 1f6234d1 8afea6c4  ...e.....b4.....
 401b00 9d532e34 a055f3a2 32e18a05 75ebf6a4  .S.4.U..2...u...
 401b10 39ec830b aaef6040 069f715e 51106ebd  9.....`@..q^Q.n.
 401b20 f98a213e 3d06dd96 ae053edd 46bde64d  ..!>=.....>.F..M
 401b30 b58d5491 055dc471 6fd40604 ff155060  ..T..].qo.....P`
 401b40 24fb9819 97e9bdd6 cc434089 779ed967  $........C@.w..g
 401b50 bd42e8b0 888b8907 385b19e7 dbeec879  .B......8[.....y
 401b60 470a7ca1 e90f427c c91e84f8 00000000  G.|...B|........
 401b70 83868009 48ed2b32 ac70111e 4e725a6c  ....H.+2.p..NrZl
 401b80 fbff0efd 5638850f 1ed5ae3d 27392d36  ....V8.....='9-6
 401b90 64d90f0a 21a65c68 d1545b9b 3a2e3624  d...!.\h.T[.:.6$
 401ba0 b1670a0c 0fe75793 d296eeb4 9e919b1b  .g....W.........
 401bb0 4fc5c080 a220dc61 694b775a 161a121c  O.... .aiKwZ....
 401bc0 0aba93e2 e52aa0c0 43e0223c 1d171b12  .....*..C."<....
 401bd0 0b0d090e adc78bf2 b9a8b62d c8a91e14  ...........-....
 401be0 8519f157 4c0775af bbdd99ee fd607fa3  ...WL.u......`..
 401bf0 9f2601f7 bcf5725c c53b6644 347efb5b  .&....r\.;fD4~.[
 401c00 7629438b dcc623cb 68fcedb6 63f1e4b8  v)C...#.h...c...
 401c10 cadc31d7 10856342 40229713 2011c684  ..1...cB@".. ...
 401c20 7d244a85 f83dbbd2 1132f9ae 6da129c7  }$J..=...2..m.).
 401c30 4b2f9e1d f330b2dc ec52860d d0e3c177  K/...0...R.....w
 401c40 6c16b32b 99b970a9 fa489411 2264e947  l..+..p..H.."d.G
 401c50 c48cfca8 1a3ff0a0 d82c7d56 ef903322  .....?...,}V..3"
 401c60 c74e4987 c1d138d9 fea2ca8c 360bd498  .NI...8.....6...
 401c70 cf81f5a6 28de7aa5 268eb7da a4bfad3f  ....(.z.&......?
 401c80 e49d3a2c 0d927850 9bcc5f6a 62467e54  ..:,..xP.._jbF~T
 401c90 c2138df6 e8b8d890 5ef7392e f5afc382  ........^.9.....
 401ca0 be805d9f 7c93d069 a92dd56f b31225cf  ..].|..i.-.o..%.
 401cb0 3b99acc8 a77d1810 6e639ce8 7bbb3bdb  ;....}..nc..{.;.
 401cc0 097826cd f418596e 01b79aec a89a4f83  .x&...Yn......O.
 401cd0 656e95e6 7ee6ffaa 08cfbc21 e6e815ef  en..~......!....
 401ce0 d99be7ba ce366f4a d4099fea d67cb029  .....6oJ.....|.)
 401cf0 afb2a431 31233f2a 3094a5c6 c066a235  ...11#?*0....f.5
 401d00 37bc4e74 a6ca82fc b0d090e0 15d8a733  7.Nt...........3
 401d10 4a9804f1 f7daec41 0e50cd7f 2ff69117  J......A.P../...
 401d20 8dd64d76 4db0ef43 544daacc df0496e4  ..MvM..CTM......
 401d30 e3b5d19e 1b886a4c b81f2cc1 7f516546  ......jL..,..QeF
 401d40 04ea5e9d 5d358c01 737487fa 2e410bfb  ..^.]5..st...A..
 401d50 5a1d67b3 52d2db92 335610e9 1347d66d  Z.g.R...3V...G.m
 401d60 8c61d79a 7a0ca137 8e14f859 893c13eb  .a..z..7...Y.<..
 401d70 ee27a9ce 35c961b7 ede51ce1 3cb1477a  .'..5.a.....<.Gz
 401d80 59dfd29c 3f73f255 79ce1418 bf37c773  Y...?s.Uy....7.s
 401d90 eacdf753 5baafd5f 146f3ddf 86db4478  ...S[.._.o=...Dx
 401da0 81f3afca 3ec468b9 2c342438 5f40a3c2  ....>.h.,4$8_@..
 401db0 72c31d16 0c25e2bc 8b493c28 41950dff  r....%...I<(A...
 401dc0 7101a839 deb30c08 9ce4b4d8 90c15664  q..9..........Vd
 401dd0 6184cb7b 70b632d5 745c6c48 4257b8d0  a..{p.2.t\lHBW..
 401de0 a7f45150 65417e53 a4171ac3 5e273a96  ..QPeA~S....^':.
 401df0 6bab3bcb 459d1ff1 58faacab 03e34b93  k.;.E...X.....K.
 401e00 fa302055 6d76adf6 76cc8891 4c02f525  .0 Umv..v...L..%
 401e10 d7e54ffc cb2ac5d7 44352680 a362b58f  ..O..*..D5&..b..
 401e20 5ab1de49 1bba2567 0eea4598 c0fe5de1  Z..I..%g..E...].
 401e30 752fc302 f04c8112 97468da3 f9d36bc6  u/...L...F....k.
 401e40 5f8f03e7 9c921595 7a6dbfeb 595295da  _.......zm..YR..
 401e50 83bed42d 217458d3 69e04929 c8c98e44  ...-!tX.i.I)...D
 401e60 89c2756a 798ef478 3e58996b 71b927dd  ..ujy..x>X.kq.'.
 401e70 4fe1beb6 ad88f017 ac20c966 3ace7db4  O........ .f:.}.
 401e80 4adf6318 311ae582 33519760 7f536245  J.c.1...3Q.`.SbE
 401e90 7764b1e0 ae6bbb84 a081fe1c 2b08f994  wd...k......+...
 401ea0 68487058 fd458f19 6cde9487 f87b52b7  hHpX.E..l....{R.
 401eb0 d373ab23 024b72e2 8f1fe357 ab55662a  .s.#.Kr....W.Uf*
 401ec0 28ebb207 c2b52f03 7bc5869a 0837d3a5  (...../.{....7..
 401ed0 872830f2 a5bf23b2 6a0302ba 8216ed5c  .(0...#.j......\
 401ee0 1ccf8a2b b479a792 f207f3f0 e2694ea1  ...+.y.......iN.
 401ef0 f4da65cd be0506d5 6234d11f fea6c48a  ..e.....b4......
 401f00 532e349d 55f3a2a0 e18a0532 ebf6a475  S.4.U......2...u
 401f10 ec830b39 ef6040aa 9f715e06 106ebd51  ...9.`@..q^..n.Q
 401f20 8a213ef9 06dd963d 053eddae bde64d46  .!>....=.>....MF
 401f30 8d5491b5 5dc47105 d406046f 155060ff  .T..].q....o.P`.
 401f40 fb981924 e9bdd697 434089cc 9ed96777  ...$....C@....gw
 401f50 42e8b0bd 8b890788 5b19e738 eec879db  B.......[..8..y.
 401f60 0a7ca147 0f427ce9 1e84f8c9 00000000  .|.G.B|.........
 401f70 86800983 ed2b3248 70111eac 725a6c4e  .....+2Hp...rZlN
 401f80 ff0efdfb 38850f56 d5ae3d1e 392d3627  ....8..V..=.9-6'
 401f90 d90f0a64 a65c6821 545b9bd1 2e36243a  ...d.\h!T[...6$:
 401fa0 670a0cb1 e757930f 96eeb4d2 919b1b9e  g....W..........
 401fb0 c5c0804f 20dc61a2 4b775a69 1a121c16  ...O .a.KwZi....
 401fc0 ba93e20a 2aa0c0e5 e0223c43 171b121d  ....*...."<C....
 401fd0 0d090e0b c78bf2ad a8b62db9 a91e14c8  ..........-.....
 401fe0 19f15785 0775af4c dd99eebb 607fa3fd  ..W..u.L....`...
 401ff0 2601f79f f5725cbc 3b6644c5 7efb5b34  &....r\.;fD.~.[4
 402000 29438b76 c623cbdc fcedb668 f1e4b863  )C.v.#.....h...c
 402010 dc31d7ca 85634210 22971340 11c68420  .1...cB."..@... 
 402020 244a857d 3dbbd2f8 32f9ae11 a129c76d  $J.}=...2....).m
 402030 2f9e1d4b 30b2dcf3 52860dec e3c177d0  /..K0...R.....w.
 402040 16b32b6c b970a999 489411fa 64e94722  ..+l.p..H...d.G"
 402050 8cfca8c4 3ff0a01a 2c7d56d8 903322ef  ....?...,}V..3".
 402060 4e4987c7 d138d9c1 a2ca8cfe 0bd49836  NI...8.........6
 402070 81f5a6cf de7aa528 8eb7da26 bfad3fa4  .....z.(...&..?.
 402080 9d3a2ce4 9278500d cc5f6a9b 467e5462  .:,..xP.._j.F~Tb
 402090 138df6c2 b8d890e8 f7392e5e afc382f5  .........9.^....
 4020a0 805d9fbe 93d0697c 2dd56fa9 1225cfb3  .]....i|-.o..%..
 4020b0 99acc83b 7d1810a7 639ce86e bb3bdb7b  ...;}...c..n.;.{
 4020c0 7826cd09 18596ef4 b79aec01 9a4f83a8  x&...Yn......O..
 4020d0 6e95e665 e6ffaa7e cfbc2108 e815efe6  n..e...~..!.....
 4020e0 9be7bad9 366f4ace 099fead4 7cb029d6  ....6oJ.....|.).
 4020f0 b2a431af 233f2a31 94a5c630 66a235c0  ..1.#?*1...0f.5.
 402100 bc4e7437 ca82fca6 d090e0b0 d8a73315  .Nt7..........3.
 402110 9804f14a daec41f7 50cd7f0e f691172f  ...J..A.P....../
 402120 d64d768d b0ef434d 4daacc54 0496e4df  .Mv...CMM..T....
 402130 b5d19ee3 886a4c1b 1f2cc1b8 5165467f  .....jL..,..QeF.
 402140 ea5e9d04 358c015d 7487fa73 410bfb2e  .^..5..]t..sA...
 402150 1d67b35a d2db9252 5610e933 47d66d13  .g.Z...RV..3G.m.
 402160 61d79a8c 0ca1377a 14f8598e 3c13eb89  a.....7z..Y.<...
 402170 27a9ceee c961b735 e51ce1ed b1477a3c  '....a.5.....Gz<
 402180 dfd29c59 73f2553f ce141879 37c773bf  ...Ys.U?...y7.s.
 402190 cdf753ea aafd5f5b 6f3ddf14 db447886  ..S..._[o=...Dx.
 4021a0 f3afca81 c468b93e 3424382c 40a3c25f  .....h.>4$8,@.._
 4021b0 c31d1672 25e2bc0c 493c288b 950dff41  ...r%...I<(....A
 4021c0 01a83971 b30c08de e4b4d89c c1566490  ..9q.........Vd.
 4021d0 84cb7b61 b632d570 5c6c4874 57b8d042  ..{a.2.p\lHtW..B
 4021e0 f45150a7 417e5365 171ac3a4 273a965e  .QP.A~Se....':.^
 4021f0 ab3bcb6b 9d1ff145 faacab58 e34b9303  .;.k...E...X.K..
 402200 302055fa 76adf66d cc889176 02f5254c  0 U.v..m...v..%L
 402210 e54ffcd7 2ac5d7cb 35268044 62b58fa3  .O..*...5&.Db...
 402220 b1de495a ba25671b ea45980e fe5de1c0  ..IZ.%g..E...]..
 402230 2fc30275 4c8112f0 468da397 d36bc6f9  /..uL...F....k..
 402240 8f03e75f 9215959c 6dbfeb7a 5295da59  ..._....m..zR..Y
 402250 bed42d83 7458d321 e0492969 c98e44c8  ..-.tX.!.I)i..D.
 402260 c2756a89 8ef47879 58996b3e b927dd71  .uj...xyX.k>.'.q
 402270 e1beb64f 88f017ad 20c966ac ce7db43a  ...O.... .f..}.:
 402280 df63184a 1ae58231 51976033 5362457f  .c.J...1Q.`3SbE.
 402290 64b1e077 6bbb84ae 81fe1ca0 08f9942b  d..wk..........+
 4022a0 48705868 458f19fd de94876c 7b52b7f8  HpXhE......l{R..
 4022b0 73ab23d3 4b72e202 1fe3578f 55662aab  s.#.Kr....W.Uf*.
 4022c0 ebb20728 b52f03c2 c5869a7b 37d3a508  ...(./.....{7...
 4022d0 2830f287 bf23b2a5 0302ba6a 16ed5c82  (0...#.....j..\.
 4022e0 cf8a2b1c 79a792b4 07f3f0f2 694ea1e2  ..+.y.......iN..
 4022f0 da65cdf4 0506d5be 34d11f62 a6c48afe  .e......4..b....
 402300 2e349d53 f3a2a055 8a0532e1 f6a475eb  .4.S...U..2...u.
 402310 830b39ec 6040aaef 715e069f 6ebd5110  ..9.`@..q^..n.Q.
 402320 213ef98a dd963d06 3eddae05 e64d46bd  !>....=.>....MF.
 402330 5491b58d c471055d 06046fd4 5060ff15  T....q.]..o.P`..
 402340 981924fb bdd697e9 4089cc43 d967779e  ..$.....@..C.gw.
 402350 e8b0bd42 8907888b 19e7385b c879dbee  ...B......8[.y..
 402360 7ca1470a 427ce90f 84f8c91e 00000000  |.G.B|..........
 402370 80098386 2b3248ed 111eac70 5a6c4e72  ....+2H....pZlNr
 402380 0efdfbff 850f5638 ae3d1ed5 2d362739  ......V8.=..-6'9
 402390 0f0a64d9 5c6821a6 5b9bd154 36243a2e  ..d.\h!.[..T6$:.
 4023a0 0a0cb167 57930fe7 eeb4d296 9b1b9e91  ...gW...........
 4023b0 c0804fc5 dc61a220 775a694b 121c161a  ..O..a. wZiK....
 4023c0 93e20aba a0c0e52a 223c43e0 1b121d17  .......*"<C.....
 4023d0 090e0b0d 8bf2adc7 b62db9a8 1e14c8a9  .........-......
 4023e0 f1578519 75af4c07 99eebbdd 7fa3fd60  .W..u.L........`
 4023f0 01f79f26 725cbcf5 6644c53b fb5b347e  ...&r\..fD.;.[4~
 402400 438b7629 23cbdcc6 edb668fc e4b863f1  C.v)#.....h...c.
 402410 31d7cadc 63421085 97134022 c6842011  1...cB....@".. .
 402420 4a857d24 bbd2f83d f9ae1132 29c76da1  J.}$...=...2).m.
 402430 9e1d4b2f b2dcf330 860dec52 c177d0e3  ..K/...0...R.w..
 402440 b32b6c16 70a999b9 9411fa48 e9472264  .+l.p......H.G"d
 402450 fca8c48c f0a01a3f 7d56d82c 3322ef90  .......?}V.,3"..
 402460 4987c74e 38d9c1d1 ca8cfea2 d498360b  I..N8.........6.
 402470 f5a6cf81 7aa528de b7da268e ad3fa4bf  ....z.(...&..?..
 402480 3a2ce49d 78500d92 5f6a9bcc 7e546246  :,..xP.._j..~TbF
 402490 8df6c213 d890e8b8 392e5ef7 c382f5af  ........9.^.....
 4024a0 5d9fbe80 d0697c93 d56fa92d 25cfb312  ]....i|..o.-%...
 4024b0 acc83b99 1810a77d 9ce86e63 3bdb7bbb  ..;....}..nc;.{.
 4024c0 26cd0978 596ef418 9aec01b7 4f83a89a  &..xYn......O...
 4024d0 95e6656e ffaa7ee6 bc2108cf 15efe6e8  ..en..~..!......
 4024e0 e7bad99b 6f4ace36 9fead409 b029d67c  ....oJ.6.....).|
 4024f0 a431afb2 3f2a3123 a5c63094 a235c066  .1..?*1#..0..5.f
 402500 4e7437bc 82fca6ca 90e0b0d0 a73315d8  Nt7..........3..
 402510 04f14a98 ec41f7da cd7f0e50 91172ff6  ..J..A.....P../.
 402520 4d768dd6 ef434db0 aacc544d 96e4df04  Mv...CM...TM....
 402530 d19ee3b5 6a4c1b88 2cc1b81f 65467f51  ....jL..,...eF.Q
 402540 5e9d04ea 8c015d35 87fa7374 0bfb2e41  ^.....]5..st...A
 402550 67b35a1d db9252d2 10e93356 d66d1347  g.Z...R...3V.m.G
 402560 d79a8c61 a1377a0c f8598e14 13eb893c  ...a.7z..Y.....<
 402570 a9ceee27 61b735c9 1ce1ede5 477a3cb1  ...'a.5.....Gz<.
 402580 d29c59df f2553f73 141879ce c773bf37  ..Y..U?s..y..s.7
 402590 f753eacd fd5f5baa 3ddf146f 447886db  .S..._[.=..oDx..
 4025a0 afca81f3 68b93ec4 24382c34 a3c25f40  ....h.>.$8,4.._@
 4025b0 1d1672c3 e2bc0c25 3c288b49 0dff4195  ..r....%<(.I..A.
 4025c0 a8397101 0c08deb3 b4d89ce4 566490c1  .9q.........Vd..
 4025d0 cb7b6184 32d570b6 6c48745c b8d04257  .{a.2.p.lHt\..BW
 4025e0 5150a7f4 7e536541 1ac3a417 3a965e27  QP..~SeA....:.^'
 4025f0 3bcb6bab 1ff1459d acab58fa 4b9303e3  ;.k...E...X.K...
 402600 2055fa30 adf66d76 889176cc f5254c02   U.0..mv..v..%L.
 402610 4ffcd7e5 c5d7cb2a 26804435 b58fa362  O......*&.D5...b
 402620 de495ab1 25671bba 45980eea 5de1c0fe  .IZ.%g..E...]...
 402630 c302752f 8112f04c 8da39746 6bc6f9d3  ..u/...L...Fk...
 402640 03e75f8f 15959c92 bfeb7a6d 95da5952  .._.......zm..YR
 402650 d42d83be 58d32174 492969e0 8e44c8c9  .-..X.!tI)i..D..
 402660 756a89c2 f478798e 996b3e58 27dd71b9  uj...xy..k>X'.q.
 402670 beb64fe1 f017ad88 c966ac20 7db43ace  ..O......f. }.:.
 402680 63184adf e582311a 97603351 62457f53  c.J...1..`3QbE.S
 402690 b1e07764 bb84ae6b fe1ca081 f9942b08  ..wd...k......+.
 4026a0 70586848 8f19fd45 94876cde 52b7f87b  pXhH...E..l.R..{
 4026b0 ab23d373 72e2024b e3578f1f 662aab55  .#.sr..K.W..f*.U
 4026c0 b20728eb 2f03c2b5 869a7bc5 d3a50837  ..(./.....{....7
 4026d0 30f28728 23b2a5bf 02ba6a03 ed5c8216  0..(#.....j..\..
 4026e0 8a2b1ccf a792b479 f3f0f207 4ea1e269  .+.....y....N..i
 4026f0 65cdf4da 06d5be05 d11f6234 c48afea6  e.........b4....
 402700 349d532e a2a055f3 0532e18a a475ebf6  4.S...U..2...u..
 402710 0b39ec83 40aaef60 5e069f71 bd51106e  .9..@..`^..q.Q.n
 402720 3ef98a21 963d06dd ddae053e 4d46bde6  >..!.=.....>MF..
 402730 91b58d54 71055dc4 046fd406 60ff1550  ...Tq.]..o..`..P
 402740 1924fb98 d697e9bd 89cc4340 67779ed9  .$........C@gw..
 402750 b0bd42e8 07888b89 e7385b19 79dbeec8  ..B......8[.y...
 402760 a1470a7c 7ce90f42 f8c91e84 00000000  .G.||..B........
 402770 09838680 3248ed2b 1eac7011 6c4e725a  ....2H.+..p.lNrZ
 402780 fdfbff0e 0f563885 3d1ed5ae 3627392d  .....V8.=...6'9-
 402790 0a64d90f 6821a65c 9bd1545b 243a2e36  .d..h!.\..T[$:.6
 4027a0 0cb1670a 930fe757 b4d296ee 1b9e919b  ..g....W........
 4027b0 804fc5c0 61a220dc 5a694b77 1c161a12  .O..a. .ZiKw....
 4027c0 e20aba93 c0e52aa0 3c43e022 121d171b  ......*.<C."....
 4027d0 0e0b0d09 f2adc78b 2db9a8b6 14c8a91e  ........-.......
 4027e0 578519f1 af4c0775 eebbdd99 a3fd607f  W....L.u......`.
 4027f0 f79f2601 5cbcf572 44c53b66 5b347efb  ..&.\..rD.;f[4~.
 402800 8b762943 cbdcc623 b668fced b863f1e4  .v)C...#.h...c..
 402810 d7cadc31 42108563 13402297 842011c6  ...1B..c.@".. ..
 402820 857d244a d2f83dbb ae1132f9 c76da129  .}$J..=...2..m.)
 402830 1d4b2f9e dcf330b2 0dec5286 77d0e3c1  .K/...0...R.w...
 402840 2b6c16b3 a999b970 11fa4894 472264e9  +l.....p..H.G"d.
 402850 a8c48cfc a01a3ff0 56d82c7d 22ef9033  ......?.V.,}"..3
 402860 87c74e49 d9c1d138 8cfea2ca 98360bd4  ..NI...8.....6..
 402870 a6cf81f5 a528de7a da268eb7 3fa4bfad  .....(.z.&..?...
 402880 2ce49d3a 500d9278 6a9bcc5f 5462467e  ,..:P..xj.._TbF~
 402890 f6c2138d 90e8b8d8 2e5ef739 82f5afc3  .........^.9....
 4028a0 9fbe805d 697c93d0 6fa92dd5 cfb31225  ...]i|..o.-....%
 4028b0 c83b99ac 10a77d18 e86e639c db7bbb3b  .;....}..nc..{.;
 4028c0 cd097826 6ef41859 ec01b79a 83a89a4f  ..x&n..Y.......O
 4028d0 e6656e95 aa7ee6ff 2108cfbc efe6e815  .en..~..!.......
 4028e0 bad99be7 4ace366f ead4099f 29d67cb0  ....J.6o....).|.
 4028f0 31afb2a4 2a31233f c63094a5 35c066a2  1...*1#?.0..5.f.
 402900 7437bc4e fca6ca82 e0b0d090 3315d8a7  t7.N........3...
 402910 f14a9804 41f7daec 7f0e50cd 172ff691  .J..A.....P../..
 402920 768dd64d 434db0ef cc544daa e4df0496  v..MCM...TM.....
 402930 9ee3b5d1 4c1b886a c1b81f2c 467f5165  ....L..j...,F.Qe
 402940 9d04ea5e 015d358c fa737487 fb2e410b  ...^.]5..st...A.
 402950 b35a1d67 9252d2db e9335610 6d1347d6  .Z.g.R...3V.m.G.
 402960 9a8c61d7 377a0ca1 598e14f8 eb893c13  ..a.7z..Y.....<.
 402970 ceee27a9 b735c961 e1ede51c 7a3cb147  ..'..5.a....z<.G
 402980 9c59dfd2 553f73f2 1879ce14 73bf37c7  .Y..U?s..y..s.7.
 402990 53eacdf7 5f5baafd df146f3d 7886db44  S..._[....o=x..D
 4029a0 ca81f3af b93ec468 382c3424 c25f40a3  .....>.h8,4$._@.
 4029b0 1672c31d bc0c25e2 288b493c ff41950d  .r....%.(.I<.A..
 4029c0 397101a8 08deb30c d89ce4b4 6490c156  9q..........d..V
 4029d0 7b6184cb d570b632 48745c6c d04257b8  {a...p.2Ht\l.BW.
 4029e0 74696d65 20746573 74203020 2025640a  time test 0  %d.
 4029f0 00726f75 6e642025 640a00             .round %d..     
Contents of section .eh_frame_hdr:
 4029fc 011b033b 58000000 0a000000 f4d9ffff  ...;X...........
 402a0c a4000000 34daffff 74000000 2adbffff  ....4...t...*...
 402a1c cc000000 69dbffff ec000000 8edbffff  ....i...........
 402a2c 0c010000 b3dbffff 2c010000 f2dbffff  ........,.......
 402a3c 4c010000 11dcffff 6c010000 34dfffff  L.......l...4...
 402a4c 8c010000 a4dfffff d4010000           ............    
Contents of section .eh_frame:
 402a58 14000000 00000000 017a5200 01781001  .........zR..x..
 402a68 1b0c0708 90010710 14000000 1c000000  ................
 402a78 b8d9ffff 2a000000 00000000 00000000  ....*...........
 402a88 14000000 00000000 017a5200 01781001  .........zR..x..
 402a98 1b0c0708 90010000 24000000 1c000000  ........$.......
 402aa8 48d9ffff 30000000 000e1046 0e184a0f  H...0......F..J.
 402ab8 0b770880 003f1a3b 2a332422 00000000  .w...?.;*3$"....
 402ac8 1c000000 44000000 56daffff 3f000000  ....D...V...?...
 402ad8 00410e10 8602430d 067a0c07 08000000  .A....C..z......
 402ae8 1c000000 64000000 75daffff 25000000  ....d...u...%...
 402af8 00410e10 8602430d 06600c07 08000000  .A....C..`......
 402b08 1c000000 84000000 7adaffff 25000000  ........z...%...
 402b18 00410e10 8602430d 06600c07 08000000  .A....C..`......
 402b28 1c000000 a4000000 7fdaffff 3f000000  ............?...
 402b38 00410e10 8602430d 067a0c07 08000000  .A....C..z......
 402b48 1c000000 c4000000 9edaffff 1f000000  ................
 402b58 00410e10 8602430d 065a0c07 08000000  .A....C..Z......
 402b68 1c000000 e4000000 9ddaffff 18030000  ................
 402b78 00410e10 8602430d 06000000 00000000  .A....C.........
 402b88 44000000 04010000 a0ddffff 65000000  D...........e...
 402b98 00420e10 8f02420e 188e0345 0e208d04  .B....B....E. ..
 402ba8 420e288c 05480e30 8606480e 3883074d  B.(..H.0..H.8..M
 402bb8 0e40720e 38410e30 410e2842 0e20420e  .@r.8A.0A.(B. B.
 402bc8 18420e10 420e0800 14000000 4c010000  .B..B.......L...
 402bd8 c8ddffff 02000000 00000000 00000000  ................
 402be8 00000000                             ....            
Contents of section .init_array:
 602e10 00054000 00000000                    ..@.....        
Contents of section .fini_array:
 602e18 e0044000 00000000                    ..@.....        
Contents of section .jcr:
 602e20 00000000 00000000                    ........        
Contents of section .dynamic:
 602e28 01000000 00000000 01000000 00000000  ................
 602e38 0c000000 00000000 c8034000 00000000  ..........@.....
 602e48 0d000000 00000000 a4094000 00000000  ..........@.....
 602e58 19000000 00000000 102e6000 00000000  ..........`.....
 602e68 1b000000 00000000 08000000 00000000  ................
 602e78 1a000000 00000000 182e6000 00000000  ..........`.....
 602e88 1c000000 00000000 08000000 00000000  ................
 602e98 f5feff6f 00000000 98024000 00000000  ...o......@.....
 602ea8 05000000 00000000 18034000 00000000  ..........@.....
 602eb8 06000000 00000000 b8024000 00000000  ..........@.....
 602ec8 0a000000 00000000 3f000000 00000000  ........?.......
 602ed8 0b000000 00000000 18000000 00000000  ................
 602ee8 15000000 00000000 00000000 00000000  ................
 602ef8 03000000 00000000 00306000 00000000  .........0`.....
 602f08 02000000 00000000 30000000 00000000  ........0.......
 602f18 14000000 00000000 07000000 00000000  ................
 602f28 17000000 00000000 98034000 00000000  ..........@.....
 602f38 07000000 00000000 80034000 00000000  ..........@.....
 602f48 08000000 00000000 18000000 00000000  ................
 602f58 09000000 00000000 18000000 00000000  ................
 602f68 feffff6f 00000000 60034000 00000000  ...o....`.@.....
 602f78 ffffff6f 00000000 01000000 00000000  ...o............
 602f88 f0ffff6f 00000000 58034000 00000000  ...o....X.@.....
 602f98 00000000 00000000 00000000 00000000  ................
 602fa8 00000000 00000000 00000000 00000000  ................
 602fb8 00000000 00000000 00000000 00000000  ................
 602fc8 00000000 00000000 00000000 00000000  ................
 602fd8 00000000 00000000 00000000 00000000  ................
 602fe8 00000000 00000000 00000000 00000000  ................
Contents of section .got:
 602ff8 00000000 00000000                    ........        
Contents of section .got.plt:
 603000 282e6000 00000000 00000000 00000000  (.`.............
 603010 00000000 00000000 06044000 00000000  ..........@.....
 603020 16044000 00000000                    ..@.....        
Contents of section .data:
 603028 00000000 00000000 00000000 00000000  ................
Contents of section .comment:
 0000 4743433a 20285562 756e7475 20352e34  GCC: (Ubuntu 5.4
 0010 2e302d36 7562756e 7475317e 31362e30  .0-6ubuntu1~16.0
 0020 342e3132 2920352e 342e3020 32303136  4.12) 5.4.0 2016
 0030 30363039 00                          0609.           
Contents of section .debug_aranges:
 0000 2c000000 02000000 00000800 00000000  ,...............
 0010 26054000 00000000 ff030000 00000000  &.@.............
 0020 00000000 00000000 00000000 00000000  ................
Contents of section .debug_info:
 0000 75040000 04000000 00000801 b8000000  u...............
 0010 0c000000 002e0000 00260540 00000000  .........&.@....
 0020 00ff0300 00000000 00000000 00020807  ................
 0030 08010000 0201087e 00000002 0207a500  .......~........
 0040 00000204 070d0100 00020106 80000000  ................
 0050 02020516 00000003 0405696e 74000208  ..........int...
 0060 05700000 00020807 20000000 02010687  .p...... .......
 0070 00000004 75333200 01024200 0000059c  ....u32...B.....
 0080 00000001 38024200 0000050d 00000001  ....8.B.........
 0090 3c022d00 00000658 00000001 14022605  <.-....X......&.
 00a0 40000000 00003f00 00000000 0000019c  @.....?.........
 00b0 12010000 072a0540 00000000 00380000  .....*.@.....8..
 00c0 00000000 00086900 01150257 00000002  ......i....W....
 00d0 91640733 05400000 00000022 00000000  .d.3.@....."....
 00e0 00000008 78000116 02570000 0002916c  ....x....W.....l
 00f0 07330540 00000000 00220000 00000000  .3.@....."......
 0100 00086a00 01170257 00000002 91680000  ..j....W.....h..
 0110 00000664 00000001 1d026505 40000000  ...d......e.@...
 0120 00002500 00000000 0000019c 6f010000  ..%.........o...
 0130 07690540 00000000 001e0000 00000000  .i.@............
 0140 00086900 011e0257 00000002 91680772  ..i....W.....h.r
 0150 05400000 00000008 00000000 00000008  .@..............
 0160 7800011f 02570000 0002916c 00000006  x....W.....l....
 0170 6a000000 0124028a 05400000 00000025  j....$...@.....%
 0180 00000000 00000001 9ccc0100 00078e05  ................
 0190 40000000 00001e00 00000000 00000869  @..............i
 01a0 00012502 57000000 02916807 97054000  ..%.W.....h...@.
 01b0 00000000 08000000 00000000 08780001  .............x..
 01c0 26025700 00000291 6c000000 065e0000  &.W.....l....^..
 01d0 00012b02 af054000 00000000 3f000000  ..+...@.....?...
 01e0 00000000 019c4802 000007b3 05400000  ......H......@..
 01f0 00000038 00000000 00000008 6900012c  ...8........i..,
 0200 02570000 00029164 07bc0540 00000000  .W.....d...@....
 0210 00220000 00000000 00087800 012d0257  ."........x..-.W
 0220 00000002 916c07bc 05400000 00000022  .....l...@....."
 0230 00000000 00000008 6a00012e 02570000  ........j....W..
 0240 00029168 00000000 091a0100 00014102  ...h..........A.
 0250 8a000000 ee054000 00000000 1f000000  ......@.........
 0260 00000000 019c8902 0000086c 6f770001  ...........low..
 0270 42027e00 00000291 680a7900 00000142  B.~.....h.y....B
 0280 027e0000 0002916c 000b2900 00000147  .~.....l..)....G
 0290 02570000 000d0640 00000000 00180300  .W.....@........
 02a0 00000000 00019c7f 0300000c 78000148  ............x..H
 02b0 02570000 000c7900 01480257 0000000a  .W....y..H.W....
 02c0 8c000000 01490257 00000003 91d07d08  .....I.W......}.
 02d0 6b000151 027f0300 000391f0 7d086b31  k..Q........}.k1
 02e0 00015702 7f030000 0391f07e 072f0840  ..W........~./.@
 02f0 00000000 00d30000 00000000 00086a00  ..............j.
 0300 015a0257 00000003 91d47d07 3e084000  .Z.W......}.>.@.
 0310 00000000 ad000000 00000000 08690001  .............i..
 0320 5b025700 00000391 d87d074d 08400000  [.W......}.M.@..
 0330 00000087 00000000 00000008 6d00015c  ............m..\
 0340 02570000 000391dc 7d076c08 40000000  .W......}.l.@...
 0350 00004c00 00000000 00000a92 00000001  ..L.............
 0360 5e028a00 00000391 e07d0a07 00000001  ^........}......
 0370 60028a00 00000391 e87d0000 0000000d  `........}......
 0380 57000000 8f030000 0e650000 001d000d  W........e......
 0390 9f030000 9f030000 0e650000 00ff000f  .........e......
 03a0 73000000 10546530 000103b9 03000009  s....Te0........
 03b0 03e00940 00000000 000f8f03 00001054  ...@...........T
 03c0 65310001 45d30300 000903e0 0d400000  e1..E........@..
 03d0 0000000f 8f030000 10546532 000187ed  .........Te2....
 03e0 03000009 03e01140 00000000 000f8f03  .......@........
 03f0 00001054 65330001 c9070400 000903e0  ...Te3..........
 0400 15400000 0000000f 8f030000 08546430  .@...........Td0
 0410 00010c01 22040000 0903e019 40000000  ....".......@...
 0420 00000f8f 03000008 54643100 014e013d  ........Td1..N.=
 0430 04000009 03e01d40 00000000 000f8f03  .......@........
 0440 00000854 64320001 90015804 00000903  ...Td2....X.....
 0450 e0214000 00000000 0f8f0300 00085464  .!@...........Td
 0460 330001d2 01730400 000903e0 25400000  3....s......%@..
 0470 0000000f 8f030000 00                 .........       
Contents of section .debug_abbrev:
 0000 01110125 0e130b03 0e1b0e11 01120710  ...%............
 0010 17000002 24000b0b 3e0b030e 00000324  ....$...>......$
 0020 000b0b3e 0b030800 00041600 03083a0b  ...>..........:.
 0030 3b0b4913 00000516 00030e3a 0b3b0549  ;.I........:.;.I
 0040 13000006 2e013f19 030e3a0b 3b051101  ......?...:.;...
 0050 12074018 97421901 13000007 0b011101  ..@..B..........
 0060 12070000 08340003 083a0b3b 05491302  .....4...:.;.I..
 0070 18000009 2e01030e 3a0b3b05 49131101  ........:.;.I...
 0080 12074018 97421901 1300000a 3400030e  ..@..B......4...
 0090 3a0b3b05 49130218 00000b2e 013f1903  :.;.I........?..
 00a0 0e3a0b3b 05491311 01120740 18964219  .:.;.I.....@..B.
 00b0 01130000 0c340003 083a0b3b 05491300  .....4...:.;.I..
 00c0 000d0101 49130113 00000e21 0049132f  ....I......!.I./
 00d0 0b00000f 26004913 00001034 0003083a  ....&.I....4...:
 00e0 0b3b0b49 13021800 0000               .;.I......      
Contents of section .debug_line:
 0000 eb000000 02001d00 00000101 fb0e0d00  ................
 0010 01010101 00000001 00000100 6c317070  ............l1pp
 0020 2e630000 00000000 09022605 40000000  .c........&.@...
 0030 00000393 04014b92 00020403 91000204  ......K.........
 0040 03e30002 0401064a 00020402 06640002  .......J.....d..
 0050 0401064a 06963e4b 00020403 92000204  ...J..>K........
 0060 03800002 0401064a 06943e4b 00020403  .......J..>K....
 0070 92000204 03800002 0401064a 06943e4b  ...........J..>K
 0080 92000204 03910002 0403e300 02040106  ................
 0090 4a000204 02066400 02040106 4a069703  J.....d.....J...
 00a0 0e3c4c91 f330ace6 a602ac02 1802d201  .<L..0..........
 00b0 15e5e5bb 082f0813 9f081302 22150002  ...../......"...
 00c0 04020378 9e000204 01067400 02040206  ...x......t.....
 00d0 8f000204 01067400 02040206 f1000204  ......t.........
 00e0 01067406 030ff275 08680205 000101    ..t....u.h..... 
Contents of section .debug_str:
 0000 6c317070 2e63006e 74696d65 0075696e  l1pp.c.ntime.uin
 0010 7436345f 74007368 6f727420 696e7400  t64_t.short int.
 0020 73697a65 74797065 006d6169 6e002f68  sizetype.main./h
 0030 6f6d652f 62656363 612f446f 63756d65  ome/becca/Docume
 0040 6e74732f 5072696d 652d5072 6f62652f  nts/Prime-Probe/
 0050 46526c6f 63616c00 74657374 30007465  FRlocal.test0.te
 0060 73743100 74657374 32007465 73743300  st1.test2.test3.
 0070 6c6f6e67 20696e74 00686967 6800756e  long int.high.un
 0080 7369676e 65642063 68617200 726f756e  signed char.roun
 0090 64007072 65765f74 696d6500 75696e74  d.prev_time.uint
 00a0 33325f74 0073686f 72742075 6e736967  32_t.short unsig
 00b0 6e656420 696e7400 474e5520 43313120  ned int.GNU C11 
 00c0 352e342e 30203230 31363036 3039202d  5.4.0 20160609 -
 00d0 6d74756e 653d6765 6e657269 63202d6d  mtune=generic -m
 00e0 61726368 3d783836 2d363420 2d67202d  arch=x86-64 -g -
 00f0 66737461 636b2d70 726f7465 63746f72  fstack-protector
 0100 2d737472 6f6e6700 6c6f6e67 20756e73  -strong.long uns
 0110 69676e65 6420696e 74007264 74736370  igned int.rdtscp
 0120 363400                               64.             

Disassembly of section .init:

00000000004003c8 <_init>:
  4003c8:	48 83 ec 08          	sub    $0x8,%rsp
  4003cc:	48 8b 05 25 2c 20 00 	mov    0x202c25(%rip),%rax        # 602ff8 <_DYNAMIC+0x1d0>
  4003d3:	48 85 c0             	test   %rax,%rax
  4003d6:	74 05                	je     4003dd <_init+0x15>
  4003d8:	e8 43 00 00 00       	callq  400420 <__libc_start_main@plt+0x10>
  4003dd:	48 83 c4 08          	add    $0x8,%rsp
  4003e1:	c3                   	retq   

Disassembly of section .plt:

00000000004003f0 <printf@plt-0x10>:
  4003f0:	ff 35 12 2c 20 00    	pushq  0x202c12(%rip)        # 603008 <_GLOBAL_OFFSET_TABLE_+0x8>
  4003f6:	ff 25 14 2c 20 00    	jmpq   *0x202c14(%rip)        # 603010 <_GLOBAL_OFFSET_TABLE_+0x10>
  4003fc:	0f 1f 40 00          	nopl   0x0(%rax)

0000000000400400 <printf@plt>:
  400400:	ff 25 12 2c 20 00    	jmpq   *0x202c12(%rip)        # 603018 <_GLOBAL_OFFSET_TABLE_+0x18>
  400406:	68 00 00 00 00       	pushq  $0x0
  40040b:	e9 e0 ff ff ff       	jmpq   4003f0 <_init+0x28>

0000000000400410 <__libc_start_main@plt>:
  400410:	ff 25 0a 2c 20 00    	jmpq   *0x202c0a(%rip)        # 603020 <_GLOBAL_OFFSET_TABLE_+0x20>
  400416:	68 01 00 00 00       	pushq  $0x1
  40041b:	e9 d0 ff ff ff       	jmpq   4003f0 <_init+0x28>

Disassembly of section .plt.got:

0000000000400420 <.plt.got>:
  400420:	ff 25 d2 2b 20 00    	jmpq   *0x202bd2(%rip)        # 602ff8 <_DYNAMIC+0x1d0>
  400426:	66 90                	xchg   %ax,%ax

Disassembly of section .text:

0000000000400430 <_start>:
  400430:	31 ed                	xor    %ebp,%ebp
  400432:	49 89 d1             	mov    %rdx,%r9
  400435:	5e                   	pop    %rsi
  400436:	48 89 e2             	mov    %rsp,%rdx
  400439:	48 83 e4 f0          	and    $0xfffffffffffffff0,%rsp
  40043d:	50                   	push   %rax
  40043e:	54                   	push   %rsp
  40043f:	49 c7 c0 a0 09 40 00 	mov    $0x4009a0,%r8
  400446:	48 c7 c1 30 09 40 00 	mov    $0x400930,%rcx
  40044d:	48 c7 c7 0d 06 40 00 	mov    $0x40060d,%rdi
  400454:	e8 b7 ff ff ff       	callq  400410 <__libc_start_main@plt>
  400459:	f4                   	hlt    
  40045a:	66 0f 1f 44 00 00    	nopw   0x0(%rax,%rax,1)

0000000000400460 <deregister_tm_clones>:
  400460:	b8 3f 30 60 00       	mov    $0x60303f,%eax
  400465:	55                   	push   %rbp
  400466:	48 2d 38 30 60 00    	sub    $0x603038,%rax
  40046c:	48 83 f8 0e          	cmp    $0xe,%rax
  400470:	48 89 e5             	mov    %rsp,%rbp
  400473:	76 1b                	jbe    400490 <deregister_tm_clones+0x30>
  400475:	b8 00 00 00 00       	mov    $0x0,%eax
  40047a:	48 85 c0             	test   %rax,%rax
  40047d:	74 11                	je     400490 <deregister_tm_clones+0x30>
  40047f:	5d                   	pop    %rbp
  400480:	bf 38 30 60 00       	mov    $0x603038,%edi
  400485:	ff e0                	jmpq   *%rax
  400487:	66 0f 1f 84 00 00 00 	nopw   0x0(%rax,%rax,1)
  40048e:	00 00 
  400490:	5d                   	pop    %rbp
  400491:	c3                   	retq   
  400492:	0f 1f 40 00          	nopl   0x0(%rax)
  400496:	66 2e 0f 1f 84 00 00 	nopw   %cs:0x0(%rax,%rax,1)
  40049d:	00 00 00 

00000000004004a0 <register_tm_clones>:
  4004a0:	be 38 30 60 00       	mov    $0x603038,%esi
  4004a5:	55                   	push   %rbp
  4004a6:	48 81 ee 38 30 60 00 	sub    $0x603038,%rsi
  4004ad:	48 c1 fe 03          	sar    $0x3,%rsi
  4004b1:	48 89 e5             	mov    %rsp,%rbp
  4004b4:	48 89 f0             	mov    %rsi,%rax
  4004b7:	48 c1 e8 3f          	shr    $0x3f,%rax
  4004bb:	48 01 c6             	add    %rax,%rsi
  4004be:	48 d1 fe             	sar    %rsi
  4004c1:	74 15                	je     4004d8 <register_tm_clones+0x38>
  4004c3:	b8 00 00 00 00       	mov    $0x0,%eax
  4004c8:	48 85 c0             	test   %rax,%rax
  4004cb:	74 0b                	je     4004d8 <register_tm_clones+0x38>
  4004cd:	5d                   	pop    %rbp
  4004ce:	bf 38 30 60 00       	mov    $0x603038,%edi
  4004d3:	ff e0                	jmpq   *%rax
  4004d5:	0f 1f 00             	nopl   (%rax)
  4004d8:	5d                   	pop    %rbp
  4004d9:	c3                   	retq   
  4004da:	66 0f 1f 44 00 00    	nopw   0x0(%rax,%rax,1)

00000000004004e0 <__do_global_dtors_aux>:
  4004e0:	80 3d 51 2b 20 00 00 	cmpb   $0x0,0x202b51(%rip)        # 603038 <__TMC_END__>
  4004e7:	75 11                	jne    4004fa <__do_global_dtors_aux+0x1a>
  4004e9:	55                   	push   %rbp
  4004ea:	48 89 e5             	mov    %rsp,%rbp
  4004ed:	e8 6e ff ff ff       	callq  400460 <deregister_tm_clones>
  4004f2:	5d                   	pop    %rbp
  4004f3:	c6 05 3e 2b 20 00 01 	movb   $0x1,0x202b3e(%rip)        # 603038 <__TMC_END__>
  4004fa:	f3 c3                	repz retq 
  4004fc:	0f 1f 40 00          	nopl   0x0(%rax)

0000000000400500 <frame_dummy>:
  400500:	bf 20 2e 60 00       	mov    $0x602e20,%edi
  400505:	48 83 3f 00          	cmpq   $0x0,(%rdi)
  400509:	75 05                	jne    400510 <frame_dummy+0x10>
  40050b:	eb 93                	jmp    4004a0 <register_tm_clones>
  40050d:	0f 1f 00             	nopl   (%rax)
  400510:	b8 00 00 00 00       	mov    $0x0,%eax
  400515:	48 85 c0             	test   %rax,%rax
  400518:	74 f1                	je     40050b <frame_dummy+0xb>
  40051a:	55                   	push   %rbp
  40051b:	48 89 e5             	mov    %rsp,%rbp
  40051e:	ff d0                	callq  *%rax
  400520:	5d                   	pop    %rbp
  400521:	e9 7a ff ff ff       	jmpq   4004a0 <register_tm_clones>

0000000000400526 <test0>:
  400526:	55                   	push   %rbp
  400527:	48 89 e5             	mov    %rsp,%rbp
  40052a:	c7 45 f4 00 00 00 00 	movl   $0x0,-0xc(%rbp)
  400531:	eb 26                	jmp    400559 <test0+0x33>
  400533:	c7 45 f8 00 00 00 00 	movl   $0x0,-0x8(%rbp)
  40053a:	eb 13                	jmp    40054f <test0+0x29>
  40053c:	8b 45 f8             	mov    -0x8(%rbp),%eax
  40053f:	48 98                	cltq   
  400541:	8b 04 85 e0 09 40 00 	mov    0x4009e0(,%rax,4),%eax
  400548:	89 45 fc             	mov    %eax,-0x4(%rbp)
  40054b:	83 45 f8 01          	addl   $0x1,-0x8(%rbp)
  40054f:	83 7d f8 03          	cmpl   $0x3,-0x8(%rbp)
  400553:	7e e7                	jle    40053c <test0+0x16>
  400555:	83 45 f4 01          	addl   $0x1,-0xc(%rbp)
  400559:	81 7d f4 e7 03 00 00 	cmpl   $0x3e7,-0xc(%rbp)
  400560:	7e d1                	jle    400533 <test0+0xd>
  400562:	90                   	nop
  400563:	5d                   	pop    %rbp
  400564:	c3                   	retq   

0000000000400565 <test2>:
  400565:	55                   	push   %rbp
  400566:	48 89 e5             	mov    %rsp,%rbp
  400569:	c7 45 f8 00 00 00 00 	movl   $0x0,-0x8(%rbp)
  400570:	eb 0c                	jmp    40057e <test2+0x19>
  400572:	b8 63 c6 a5 63       	mov    $0x63a5c663,%eax
  400577:	89 45 fc             	mov    %eax,-0x4(%rbp)
  40057a:	83 45 f8 01          	addl   $0x1,-0x8(%rbp)
  40057e:	81 7d f8 2b 01 00 00 	cmpl   $0x12b,-0x8(%rbp)
  400585:	7e eb                	jle    400572 <test2+0xd>
  400587:	90                   	nop
  400588:	5d                   	pop    %rbp
  400589:	c3                   	retq   

000000000040058a <test3>:
  40058a:	55                   	push   %rbp
  40058b:	48 89 e5             	mov    %rsp,%rbp
  40058e:	c7 45 f8 00 00 00 00 	movl   $0x0,-0x8(%rbp)
  400595:	eb 0c                	jmp    4005a3 <test3+0x19>
  400597:	b8 63 c6 a5 63       	mov    $0x63a5c663,%eax
  40059c:	89 45 fc             	mov    %eax,-0x4(%rbp)
  40059f:	83 45 f8 01          	addl   $0x1,-0x8(%rbp)
  4005a3:	81 7d f8 cf 07 00 00 	cmpl   $0x7cf,-0x8(%rbp)
  4005aa:	7e eb                	jle    400597 <test3+0xd>
  4005ac:	90                   	nop
  4005ad:	5d                   	pop    %rbp
  4005ae:	c3                   	retq   

00000000004005af <test1>:
  4005af:	55                   	push   %rbp
  4005b0:	48 89 e5             	mov    %rsp,%rbp
  4005b3:	c7 45 f4 00 00 00 00 	movl   $0x0,-0xc(%rbp)
  4005ba:	eb 26                	jmp    4005e2 <test1+0x33>
  4005bc:	c7 45 f8 00 00 00 00 	movl   $0x0,-0x8(%rbp)
  4005c3:	eb 13                	jmp    4005d8 <test1+0x29>
  4005c5:	8b 45 f8             	mov    -0x8(%rbp),%eax
  4005c8:	48 98                	cltq   
  4005ca:	8b 04 85 e0 0d 40 00 	mov    0x400de0(,%rax,4),%eax
  4005d1:	89 45 fc             	mov    %eax,-0x4(%rbp)
  4005d4:	83 45 f8 01          	addl   $0x1,-0x8(%rbp)
  4005d8:	83 7d f8 03          	cmpl   $0x3,-0x8(%rbp)
  4005dc:	7e e7                	jle    4005c5 <test1+0x16>
  4005de:	83 45 f4 01          	addl   $0x1,-0xc(%rbp)
  4005e2:	81 7d f4 e7 03 00 00 	cmpl   $0x3e7,-0xc(%rbp)
  4005e9:	7e d1                	jle    4005bc <test1+0xd>
  4005eb:	90                   	nop
  4005ec:	5d                   	pop    %rbp
  4005ed:	c3                   	retq   

00000000004005ee <rdtscp64>:
  4005ee:	55                   	push   %rbp
  4005ef:	48 89 e5             	mov    %rsp,%rbp
  4005f2:	0f 01 f9             	rdtscp 
  4005f5:	89 45 f8             	mov    %eax,-0x8(%rbp)
  4005f8:	89 55 fc             	mov    %edx,-0x4(%rbp)
  4005fb:	8b 45 fc             	mov    -0x4(%rbp),%eax
  4005fe:	48 c1 e0 20          	shl    $0x20,%rax
  400602:	48 89 c2             	mov    %rax,%rdx
  400605:	8b 45 f8             	mov    -0x8(%rbp),%eax
  400608:	48 09 d0             	or     %rdx,%rax
  40060b:	5d                   	pop    %rbp
  40060c:	c3                   	retq   

000000000040060d <main>:
  40060d:	55                   	push   %rbp
  40060e:	48 89 e5             	mov    %rsp,%rbp
  400611:	48 81 ec 20 01 00 00 	sub    $0x120,%rsp
  400618:	64 48 8b 04 25 28 00 	mov    %fs:0x28,%rax
  40061f:	00 00 
  400621:	48 89 45 f8          	mov    %rax,-0x8(%rbp)
  400625:	31 c0                	xor    %eax,%eax
  400627:	c7 85 e0 fe ff ff 00 	movl   $0x0,-0x120(%rbp)
  40062e:	00 00 00 
  400631:	c7 85 00 ff ff ff 00 	movl   $0x0,-0x100(%rbp)
  400638:	00 00 00 
  40063b:	c7 85 04 ff ff ff 00 	movl   $0x0,-0xfc(%rbp)
  400642:	00 00 00 
  400645:	c7 85 08 ff ff ff 00 	movl   $0x0,-0xf8(%rbp)
  40064c:	00 00 00 
  40064f:	c7 85 0c ff ff ff 00 	movl   $0x0,-0xf4(%rbp)
  400656:	00 00 00 
  400659:	c7 85 10 ff ff ff 00 	movl   $0x0,-0xf0(%rbp)
  400660:	00 00 00 
  400663:	c7 85 14 ff ff ff 01 	movl   $0x1,-0xec(%rbp)
  40066a:	00 00 00 
  40066d:	c7 85 18 ff ff ff 01 	movl   $0x1,-0xe8(%rbp)
  400674:	00 00 00 
  400677:	c7 85 1c ff ff ff 01 	movl   $0x1,-0xe4(%rbp)
  40067e:	00 00 00 
  400681:	c7 85 20 ff ff ff 01 	movl   $0x1,-0xe0(%rbp)
  400688:	00 00 00 
  40068b:	c7 85 24 ff ff ff 01 	movl   $0x1,-0xdc(%rbp)
  400692:	00 00 00 
  400695:	c7 85 28 ff ff ff 00 	movl   $0x0,-0xd8(%rbp)
  40069c:	00 00 00 
  40069f:	c7 85 2c ff ff ff 00 	movl   $0x0,-0xd4(%rbp)
  4006a6:	00 00 00 
  4006a9:	c7 85 30 ff ff ff 00 	movl   $0x0,-0xd0(%rbp)
  4006b0:	00 00 00 
  4006b3:	c7 85 34 ff ff ff 00 	movl   $0x0,-0xcc(%rbp)
  4006ba:	00 00 00 
  4006bd:	c7 85 38 ff ff ff 00 	movl   $0x0,-0xc8(%rbp)
  4006c4:	00 00 00 
  4006c7:	c7 85 3c ff ff ff 01 	movl   $0x1,-0xc4(%rbp)
  4006ce:	00 00 00 
  4006d1:	c7 85 40 ff ff ff 01 	movl   $0x1,-0xc0(%rbp)
  4006d8:	00 00 00 
  4006db:	c7 85 44 ff ff ff 01 	movl   $0x1,-0xbc(%rbp)
  4006e2:	00 00 00 
  4006e5:	c7 85 48 ff ff ff 01 	movl   $0x1,-0xb8(%rbp)
  4006ec:	00 00 00 
  4006ef:	c7 85 4c ff ff ff 01 	movl   $0x1,-0xb4(%rbp)
  4006f6:	00 00 00 
  4006f9:	c7 85 50 ff ff ff 00 	movl   $0x0,-0xb0(%rbp)
  400700:	00 00 00 
  400703:	c7 85 54 ff ff ff 00 	movl   $0x0,-0xac(%rbp)
  40070a:	00 00 00 
  40070d:	c7 85 58 ff ff ff 00 	movl   $0x0,-0xa8(%rbp)
  400714:	00 00 00 
  400717:	c7 85 5c ff ff ff 00 	movl   $0x0,-0xa4(%rbp)
  40071e:	00 00 00 
  400721:	c7 85 60 ff ff ff 00 	movl   $0x0,-0xa0(%rbp)
  400728:	00 00 00 
  40072b:	c7 85 64 ff ff ff 01 	movl   $0x1,-0x9c(%rbp)
  400732:	00 00 00 
  400735:	c7 85 68 ff ff ff 01 	movl   $0x1,-0x98(%rbp)
  40073c:	00 00 00 
  40073f:	c7 85 6c ff ff ff 01 	movl   $0x1,-0x94(%rbp)
  400746:	00 00 00 
  400749:	c7 85 70 ff ff ff 01 	movl   $0x1,-0x90(%rbp)
  400750:	00 00 00 
  400753:	c7 85 74 ff ff ff 01 	movl   $0x1,-0x8c(%rbp)
  40075a:	00 00 00 
  40075d:	c7 45 80 00 00 00 00 	movl   $0x0,-0x80(%rbp)
  400764:	c7 45 84 00 00 00 00 	movl   $0x0,-0x7c(%rbp)
  40076b:	c7 45 88 00 00 00 00 	movl   $0x0,-0x78(%rbp)
  400772:	c7 45 8c 00 00 00 00 	movl   $0x0,-0x74(%rbp)
  400779:	c7 45 90 00 00 00 00 	movl   $0x0,-0x70(%rbp)
  400780:	c7 45 94 01 00 00 00 	movl   $0x1,-0x6c(%rbp)
  400787:	c7 45 98 00 00 00 00 	movl   $0x0,-0x68(%rbp)
  40078e:	c7 45 9c 01 00 00 00 	movl   $0x1,-0x64(%rbp)
  400795:	c7 45 a0 00 00 00 00 	movl   $0x0,-0x60(%rbp)
  40079c:	c7 45 a4 01 00 00 00 	movl   $0x1,-0x5c(%rbp)
  4007a3:	c7 45 a8 00 00 00 00 	movl   $0x0,-0x58(%rbp)
  4007aa:	c7 45 ac 01 00 00 00 	movl   $0x1,-0x54(%rbp)
  4007b1:	c7 45 b0 00 00 00 00 	movl   $0x0,-0x50(%rbp)
  4007b8:	c7 45 b4 01 00 00 00 	movl   $0x1,-0x4c(%rbp)
  4007bf:	c7 45 b8 00 00 00 00 	movl   $0x0,-0x48(%rbp)
  4007c6:	c7 45 bc 00 00 00 00 	movl   $0x0,-0x44(%rbp)
  4007cd:	c7 45 c0 00 00 00 00 	movl   $0x0,-0x40(%rbp)
  4007d4:	c7 45 c4 01 00 00 00 	movl   $0x1,-0x3c(%rbp)
  4007db:	c7 45 c8 01 00 00 00 	movl   $0x1,-0x38(%rbp)
  4007e2:	c7 45 cc 00 00 00 00 	movl   $0x0,-0x34(%rbp)
  4007e9:	c7 45 d0 00 00 00 00 	movl   $0x0,-0x30(%rbp)
  4007f0:	c7 45 d4 01 00 00 00 	movl   $0x1,-0x2c(%rbp)
  4007f7:	c7 45 d8 01 00 00 00 	movl   $0x1,-0x28(%rbp)
  4007fe:	c7 45 dc 00 00 00 00 	movl   $0x0,-0x24(%rbp)
  400805:	c7 45 e0 00 00 00 00 	movl   $0x0,-0x20(%rbp)
  40080c:	c7 45 e4 01 00 00 00 	movl   $0x1,-0x1c(%rbp)
  400813:	c7 45 e8 01 00 00 00 	movl   $0x1,-0x18(%rbp)
  40081a:	c7 45 ec 01 00 00 00 	movl   $0x1,-0x14(%rbp)
  400821:	c7 45 f0 01 00 00 00 	movl   $0x1,-0x10(%rbp)
  400828:	c7 45 f4 01 00 00 00 	movl   $0x1,-0xc(%rbp)
  40082f:	c7 85 e4 fe ff ff 00 	movl   $0x0,-0x11c(%rbp)
  400836:	00 00 00 
  400839:	e9 b4 00 00 00       	jmpq   4008f2 <main+0x2e5>
  40083e:	c7 85 e8 fe ff ff 00 	movl   $0x0,-0x118(%rbp)
  400845:	00 00 00 
  400848:	e9 8e 00 00 00       	jmpq   4008db <main+0x2ce>
  40084d:	c7 85 ec fe ff ff 00 	movl   $0x0,-0x114(%rbp)
  400854:	00 00 00 
  400857:	eb 72                	jmp    4008cb <main+0x2be>
  400859:	8b 85 ec fe ff ff    	mov    -0x114(%rbp),%eax
  40085f:	48 98                	cltq   
  400861:	8b 84 85 00 ff ff ff 	mov    -0x100(%rbp,%rax,4),%eax
  400868:	85 c0                	test   %eax,%eax
  40086a:	75 4e                	jne    4008ba <main+0x2ad>
  40086c:	b8 00 00 00 00       	mov    $0x0,%eax
  400871:	e8 78 fd ff ff       	callq  4005ee <rdtscp64>
  400876:	48 89 85 f0 fe ff ff 	mov    %rax,-0x110(%rbp)
  40087d:	b8 00 00 00 00       	mov    $0x0,%eax
  400882:	e8 9f fc ff ff       	callq  400526 <test0>
  400887:	b8 00 00 00 00       	mov    $0x0,%eax
  40088c:	e8 5d fd ff ff       	callq  4005ee <rdtscp64>
  400891:	48 89 85 f8 fe ff ff 	mov    %rax,-0x108(%rbp)
  400898:	48 8b 85 f8 fe ff ff 	mov    -0x108(%rbp),%rax
  40089f:	48 2b 85 f0 fe ff ff 	sub    -0x110(%rbp),%rax
  4008a6:	48 89 c6             	mov    %rax,%rsi
  4008a9:	bf e0 29 40 00       	mov    $0x4029e0,%edi
  4008ae:	b8 00 00 00 00       	mov    $0x0,%eax
  4008b3:	e8 48 fb ff ff       	callq  400400 <printf@plt>
  4008b8:	eb 0a                	jmp    4008c4 <main+0x2b7>
  4008ba:	b8 00 00 00 00       	mov    $0x0,%eax
  4008bf:	e8 eb fc ff ff       	callq  4005af <test1>
  4008c4:	83 85 ec fe ff ff 01 	addl   $0x1,-0x114(%rbp)
  4008cb:	83 bd ec fe ff ff 1d 	cmpl   $0x1d,-0x114(%rbp)
  4008d2:	7e 85                	jle    400859 <main+0x24c>
  4008d4:	83 85 e8 fe ff ff 01 	addl   $0x1,-0x118(%rbp)
  4008db:	81 bd e8 fe ff ff 3f 	cmpl   $0x63f,-0x118(%rbp)
  4008e2:	06 00 00 
  4008e5:	0f 8e 62 ff ff ff    	jle    40084d <main+0x240>
  4008eb:	83 85 e4 fe ff ff 01 	addl   $0x1,-0x11c(%rbp)
  4008f2:	81 bd e4 fe ff ff e7 	cmpl   $0x3e7,-0x11c(%rbp)
  4008f9:	03 00 00 
  4008fc:	0f 8e 3c ff ff ff    	jle    40083e <main+0x231>
  400902:	83 85 e0 fe ff ff 01 	addl   $0x1,-0x120(%rbp)
  400909:	8b 85 e0 fe ff ff    	mov    -0x120(%rbp),%eax
  40090f:	89 c6                	mov    %eax,%esi
  400911:	bf f1 29 40 00       	mov    $0x4029f1,%edi
  400916:	b8 00 00 00 00       	mov    $0x0,%eax
  40091b:	e8 e0 fa ff ff       	callq  400400 <printf@plt>
  400920:	e9 0a ff ff ff       	jmpq   40082f <main+0x222>
  400925:	66 2e 0f 1f 84 00 00 	nopw   %cs:0x0(%rax,%rax,1)
  40092c:	00 00 00 
  40092f:	90                   	nop

0000000000400930 <__libc_csu_init>:
  400930:	41 57                	push   %r15
  400932:	41 56                	push   %r14
  400934:	41 89 ff             	mov    %edi,%r15d
  400937:	41 55                	push   %r13
  400939:	41 54                	push   %r12
  40093b:	4c 8d 25 ce 24 20 00 	lea    0x2024ce(%rip),%r12        # 602e10 <__frame_dummy_init_array_entry>
  400942:	55                   	push   %rbp
  400943:	48 8d 2d ce 24 20 00 	lea    0x2024ce(%rip),%rbp        # 602e18 <__init_array_end>
  40094a:	53                   	push   %rbx
  40094b:	49 89 f6             	mov    %rsi,%r14
  40094e:	49 89 d5             	mov    %rdx,%r13
  400951:	4c 29 e5             	sub    %r12,%rbp
  400954:	48 83 ec 08          	sub    $0x8,%rsp
  400958:	48 c1 fd 03          	sar    $0x3,%rbp
  40095c:	e8 67 fa ff ff       	callq  4003c8 <_init>
  400961:	48 85 ed             	test   %rbp,%rbp
  400964:	74 20                	je     400986 <__libc_csu_init+0x56>
  400966:	31 db                	xor    %ebx,%ebx
  400968:	0f 1f 84 00 00 00 00 	nopl   0x0(%rax,%rax,1)
  40096f:	00 
  400970:	4c 89 ea             	mov    %r13,%rdx
  400973:	4c 89 f6             	mov    %r14,%rsi
  400976:	44 89 ff             	mov    %r15d,%edi
  400979:	41 ff 14 dc          	callq  *(%r12,%rbx,8)
  40097d:	48 83 c3 01          	add    $0x1,%rbx
  400981:	48 39 eb             	cmp    %rbp,%rbx
  400984:	75 ea                	jne    400970 <__libc_csu_init+0x40>
  400986:	48 83 c4 08          	add    $0x8,%rsp
  40098a:	5b                   	pop    %rbx
  40098b:	5d                   	pop    %rbp
  40098c:	41 5c                	pop    %r12
  40098e:	41 5d                	pop    %r13
  400990:	41 5e                	pop    %r14
  400992:	41 5f                	pop    %r15
  400994:	c3                   	retq   
  400995:	90                   	nop
  400996:	66 2e 0f 1f 84 00 00 	nopw   %cs:0x0(%rax,%rax,1)
  40099d:	00 00 00 

00000000004009a0 <__libc_csu_fini>:
  4009a0:	f3 c3                	repz retq 

Disassembly of section .fini:

00000000004009a4 <_fini>:
  4009a4:	48 83 ec 08          	sub    $0x8,%rsp
  4009a8:	48 83 c4 08          	add    $0x8,%rsp
  4009ac:	c3                   	retq   
